(dp0
I517
(lp1
I1244693
aI6523758
aI6588985
aI6794704
aI2389440
aI7207552
aI7231800
aI7287007
aI7326278
aI7679719
aI8038844
aI8128491
aI8403307
aI8403393
aI8759647
aI8884646
aI9473437
aI9525027
aI9525143
aI9574053
aI9675214
aI9776919
aI10080386
aI10080650
aI10093417
aI10130474
aI10130555
aI10130628
aI10288047
aI10305628
aI10317442
aI10437440
aI10591476
aI10601490
aI10706741
aI10708923
aI10745195
aI10852036
aI3512
aI3680
aI3698
aI5954
aI6117
aI11273
aI15030
aI16608
aI16622
aI21118
aI23096
aI23201
aI23307
aI32458
aI134684
aI209733
aI877717
aI878017
aI890018
aI912988
aI944933
aI969979
aI970013
aI989252
aI996935
aI1004152
aI1007000
aI1007177
aI1213963
aI1245521
aI1312123
aI1589167
aI1609947
aI1669807
aI1891452
aI1922831
aI2096393
aI2245414
aI2472160
aI2750654
aI2811534
aI2828089
aI3451174
aI3834523
aI3840011
asI518
(lp2
I1339549
aI2087358
aI7037406
aI7497030
aI122682
aI7901065
aI8602016
aI9737852
aI3464
aI3485
aI3565
aI4954
aI5357
aI7592
aI19446
aI19804
aI22633
aI24897
aI26476
aI26481
aI32220
aI35154
aI36677
aI38945
aI45746
aI49651
aI56970
aI58612
aI64837
aI70136
aI70170
aI74801
aI120082
aI123135
aI128644
aI157032
aI171773
aI182064
aI200752
aI205813
aI208009
aI218357
aI229310
aI251336
aI287645
aI495962
aI728867
aI729145
aI1033046
aI1044761
aI1367145
aI1378314
aI1460613
aI1460774
aI1464901
aI1496989
aI1536883
aI1595588
aI1606216
aI1606626
aI1612238
aI1612191
aI1625832
aI1636640
aI1770085
aI1914286
aI2086847
aI2148710
aI2252146
aI2543997
aI2729935
aI2743276
aI2905959
aI3193608
aI3280616
aI3316384
aI3474833
aI3634719
aI3979689
aI3980483
aI3990303
aI3990348
aI3996187
aI3997499
aI3997578
aI4031614
aI4031824
aI4041758
aI4041908
aI4076787
aI4283836
aI4682284
asI520
(lp3
I5912793
aI5913783
aI5928074
aI5950596
aI5966533
aI5968623
aI5969221
aI5969578
aI5977415
aI5981036
aI6025764
aI6297241
aI7042862
aI2601941
aI7679839
aI7744381
aI3670767
aI4027842
aI4952825
aI4821872
aI4934945
aI5897696
aI8069724
aI277963
aI8735425
aI9435957
aI9470808
aI9524319
aI10133337
aI10623050
aI11004614
aI135936
aI135970
aI136007
aI213637
aI523205
aI631988
aI865081
aI1095130
aI1268397
aI2245554
aI2404825
aI2418774
aI2419973
aI2465797
aI2588618
aI2588638
aI2596388
aI2724412
aI2767935
aI2829393
aI2830381
aI3216200
aI3408722
aI3431629
aI3470801
aI3497841
aI3609440
aI3610962
aI3680217
aI3687975
aI3688044
aI3712466
aI3738096
aI3738547
aI3989270
aI4555422
aI4660229
aI4858613
aI4914824
aI5031343
aI5174248
asI9
(lp4
I8393613
aI8933520
aI10111549
aI6
aI7
aI8
aI13
aI155
aI4428
aI11832
aI12905
aI15740
aI18969
aI21818
aI23710
aI25663
aI33082
aI33243
aI33460
aI33576
aI33667
aI33677
aI35045
aI179889
aI180061
aI209965
aI228511
aI331576
aI372401
aI567091
aI731063
aI860764
aI1089513
aI1195558
aI1349439
aI1376659
aI1395362
aI1715247
aI1823339
aI2010328
aI2046200
aI2045642
aI2075459
aI2420384
aI3391633
aI3670390
aI3918677
aI3963487
aI4514282
aI4685957
aI5011495
aI5045304
aI5147656
aI5267168
aI6231422
aI6375322
aI3918711
aI4513946
asI535
(lp5
I5859241
aI7153011
aI7432370
aI8218180
aI10948439
aI11228636
aI11211480
aI11229341
aI11245263
aI15722
aI45299
aI58330
aI93288
aI171426
aI171413
aI179362
aI194090
aI203737
aI210136
aI231771
aI236882
aI580447
aI584591
aI593424
aI635393
aI650829
aI1111812
aI1689305
aI1792915
aI1836281
aI1976372
aI1976430
aI2002775
aI2025432
aI2111257
aI2300236
aI2300359
aI2344236
aI2586974
aI2676544
aI2731424
aI2738532
aI2838012
aI3176828
aI3619937
aI3972035
aI4226778
aI5092965
aI5120247
aI5169797
aI5222296
aI5263512
asI537
(lp6
I6045702
aI6165501
aI7734769
aI7735020
aI9399498
aI3588
aI13432
aI13439
aI15292
aI770111
aI740098
aI745618
aI761122
aI761172
aI762644
aI762666
aI762695
aI762714
aI762716
aI762739
aI762744
aI762756
aI763366
aI763385
aI764397
aI765283
aI765339
aI765342
aI765353
aI765381
aI766064
aI766437
aI766538
aI766588
aI766617
aI768036
aI768208
aI768718
aI772207
aI772212
aI772248
aI776964
aI777939
aI781601
aI782989
aI800132
aI844458
aI844473
aI844490
aI844504
aI844597
aI845168
aI845377
aI845415
aI901814
aI1555090
aI2351925
aI3143295
aI3493866
aI4695546
aI4695625
aI4750923
aI4781473
asI30
(lp7
I146
aI167
aI699
aI1252
aI1276
aI1829
aI1870
aI1875
aI2561
aI2570
aI2723
aI2819
aI2920
aI2952
aI3461
aI3544
aI3770
aI4284
aI5887
aI6011
aI6202
aI6205
aI6269
aI9939
aI10076
aI10975
aI11805
aI16278
aI22721
aI36658
aI38666
aI39977
aI42197
aI44291
aI44589
aI56552
aI57006
aI95276
aI135849
aI169422
aI462492
aI480258
aI480332
aI480383
aI480759
aI480912
aI484465
aI485190
aI485337
aI485446
aI486323
aI487967
aI487640
aI488285
aI493489
aI494038
aI496125
aI496177
aI496363
aI496589
aI496700
aI496996
aI497120
aI498148
aI503465
aI504996
aI505351
aI508603
aI509073
aI512076
aI512408
aI521393
aI611878
aI803370
aI834861
aI1144719
aI1199985
aI1200558
aI1240557
aI1245971
aI3338763
aI3016543
asI34
(lp8
I8877930
aI2254
aI4211
aI41
aI53
aI112
aI238
aI240
aI252
aI266
aI313
aI431
aI421
aI435
aI486
aI586
aI713
aI614
aI691
aI755
aI858
aI876
aI880
aI896
aI904
aI960
aI1186
aI1239
aI1240
aI1398
aI1534
aI2189
aI2257
aI2281
aI2665
aI2693
aI2731
aI2797
aI2805
aI2812
aI3406
aI3441
aI3681
aI4078
aI4140
aI4204
aI4305
aI4308
aI4636
aI4639
aI4671
aI4760
aI5452
aI5575
aI5845
aI5850
aI5859
aI5883
aI6006
aI6157
aI6235
aI11797
aI11783
aI229654
aI230627
aI230654
aI231079
aI233335
aI234473
aI4563635
asI37
(lp9
I9305523
aI9316512
aI9621500
aI9635665
aI10089757
aI10167490
aI11039281
aI11040629
aI11522784
aI11613805
aI42
aI58
aI3361
aI3372
aI3525
aI3800
aI6077
aI7732
aI9840
aI9852
aI10932
aI19760
aI28757
aI82929
aI87937
aI101490
aI388983
aI429479
aI465747
aI470475
aI484113
aI504272
aI507160
aI507817
aI547602
aI632926
aI756453
aI766371
aI783315
aI812768
aI839608
aI898046
aI915799
aI950914
aI1008576
aI1195339
aI1200209
aI1256358
aI1573136
aI1662384
aI1731224
aI1841184
aI1996701
aI2065674
aI2281619
aI2320144
aI2586032
aI2766854
aI2866391
aI3053669
aI3259650
aI3748060
aI4188058
aI4190383
aI4190435
aI4316445
aI4316548
aI4891277
aI5874934
aI5875102
aI7383185
aI4817512
asI550
(lp10
I1217977
aI1919595
aI2308343
aI6968385
aI7099321
aI7137250
aI7504960
aI27284
aI4412574
aI8018708
aI8084244
aI8084595
aI8513069
aI8570179
aI9181048
aI9181361
aI9401151
aI4258
aI5472
aI7402
aI27259
aI30039
aI36464
aI46800
aI49630
aI49680
aI55737
aI132916
aI244527
aI490467
aI521023
aI1217920
aI1890949
aI1894658
aI1898708
aI1898795
aI1898844
aI1904715
aI1919329
aI1919428
aI1919650
aI1924258
aI1924507
aI1924610
aI1924626
aI1925235
aI1925349
aI1970537
aI2215868
aI2219471
aI2298937
aI2307386
aI2307459
aI2309045
aI2954287
aI3436458
aI3591079
aI3630557
aI3748003
aI4174157
aI4178402
aI4189001
aI4189232
aI4189340
aI4189729
aI4189797
aI4189884
aI4190227
asI39
(lp11
I63
aI94
aI45
aI56
aI104
aI86
aI179
aI210
aI583
aI1123
aI1242
aI1325
aI1331
aI2378
aI2389
aI2810
aI3158
aI5817
aI15880
aI19859
aI40234
aI52514
aI52987
aI59689
aI60045
aI60062
aI61385
aI72273
aI120022
aI120639
aI178135
aI197095
aI197370
aI199058
aI228830
aI237080
aI239567
aI271935
aI320917
aI328198
aI344037
aI345184
aI345248
aI368890
aI369077
aI385839
aI386133
aI406257
aI473306
aI510725
aI624172
aI1176083
aI1176566
aI1181764
aI1189533
aI1189616
aI1189924
aI1195918
aI1196082
aI1196213
aI2932076
aI4291827
aI5060381
aI5801397
aI5830712
aI6425092
aI6533810
aI3038066
aI122683
aI7926849
asI43
(lp12
I8114617
aI8351030
aI8495258
aI9298242
aI9298283
aI10656337
aI10839535
aI11383271
aI11421748
aI11462130
aI11748470
aI49
aI68461
aI110825
aI115665
aI128011
aI128033
aI134948
aI137314
aI137513
aI153801
aI205447
aI205459
aI308659
aI312846
aI347732
aI350223
aI633014
aI777999
aI778063
aI785385
aI785400
aI950348
aI950450
aI1096000
aI1365615
aI1776266
aI1874313
aI1902815
aI1918019
aI1949694
aI2101681
aI2101749
aI2102688
aI2542721
aI2542852
aI2774449
aI2828743
aI2883773
aI3127442
aI3919309
aI3953295
aI3956435
aI4298295
aI4298445
aI4298623
aI4611132
aI4904306
aI4904852
aI5106663
aI5559708
aI5605977
aI5605997
aI6132780
aI6274189
aI1588741
aI6627364
aI6631248
aI6679262
aI2093950
aI7086449
aI3125112
asI46
(lp13
I2028
aI707
aI765
aI1039
aI1105
aI1148
aI1275
aI1957
aI2027
aI2554
aI2566
aI3127
aI3255
aI4515
aI7608
aI7619
aI10724
aI10736
aI10746
aI12419
aI13070
aI19389
aI24387
aI24109
aI24940
aI25086
aI34387
aI35754
aI35803
aI36259
aI41318
aI43503
aI47376
aI49514
aI49625
aI49690
aI49706
aI49863
aI51656
aI51816
aI60410
aI63456
aI63498
aI69757
aI81210
aI81254
aI125959
aI154222
aI156760
aI162635
aI169998
aI186335
aI214854
aI215044
aI219232
aI249654
aI292370
aI327379
aI327386
aI327860
aI333412
aI358409
aI358413
aI377366
aI428107
aI436777
aI436837
aI436879
aI438729
aI442075
aI482719
aI484495
aI484526
aI714905
aI2746529
aI5592583
aI6176714
asI49
(lp14
I71
aI298
aI307
aI371
aI473
aI700
aI951
aI1106
aI3011
aI3013
aI3084
aI4397
aI4576
aI5498
aI5489
aI5501
aI6775
aI7152
aI7475
aI8372
aI9715
aI10640
aI10652
aI11813
aI11873
aI11875
aI11885
aI12206
aI13613
aI14362
aI14377
aI14368
aI14481
aI14489
aI14519
aI15415
aI15488
aI15491
aI15835
aI15844
aI19349
aI19426
aI21555
aI24079
aI25034
aI25838
aI27130
aI27617
aI34297
aI48272
aI48277
aI79691
aI79729
aI79859
aI80340
aI88789
aI155810
aI249222
aI293786
aI349246
aI362523
aI523879
aI523886
aI541227
aI1312303
aI1326281
aI1326321
aI1338556
aI1344519
aI1667510
aI1671863
aI2123494
aI3233612
aI3234163
aI4773536
aI5419316
aI5482826
aI6234264
aI6548919
aI6567126
aI6567676
aI7101947
asI563
(lp15
I5881281
aI5975000
aI6102027
aI6193432
aI6504294
aI6569060
aI6871806
aI6854780
aI6903450
aI7119681
aI7120869
aI7148239
aI7186749
aI7331612
aI2980295
aI7594496
aI3646837
aI4488913
aI7887816
aI7941329
aI1048158
aI3857
aI3829
aI5134
aI8094
aI126094
aI924947
aI939240
aI1016672
aI1084602
aI1238743
aI1548839
aI1558964
aI1565056
aI1649972
aI1722583
aI2132157
aI2255483
aI2278929
aI2816509
aI2865453
aI2872654
aI2897870
aI2923994
aI2926985
aI2968038
aI2988735
aI3039839
aI3167631
aI3222550
aI3300205
aI3465021
aI3661494
aI3665943
aI3674175
aI3758569
aI3724178
aI3724262
aI3741550
aI3768386
aI3796737
aI3853178
aI3908865
aI3930653
aI3932866
aI3960413
aI3962347
aI3977208
aI4138628
aI4191894
aI4489004
aI4591338
aI4645181
aI4666070
aI4677681
aI4829221
aI4954333
aI5029085
aI5088608
aI5090386
aI5166866
aI5245525
asI521
(lp16
I3898
aI3934
aI4763
aI4780
aI5053
aI5074
aI5151
aI5190
aI5230
aI5332
aI5462
aI6303
aI6412
aI6415
aI6429
aI8164
aI9929
aI10358
aI10366
aI11197
aI11621
aI18360
aI18930
aI20086
aI20111
aI20118
aI20536
aI23689
aI32530
aI38352
aI38436
aI39915
aI39974
aI104291
aI104321
aI116756
aI141278
aI149383
aI150685
aI153558
aI154733
aI158458
aI163464
aI175463
aI175567
aI184532
aI341156
aI511873
aI525022
aI620068
aI620047
aI717347
aI731529
aI989262
aI989283
aI1013587
aI1014670
aI1544402
asI56
(lp17
I6308328
aI6625204
aI6648697
aI7144526
aI7148284
aI2855336
aI5419132
aI5895136
aI8077049
aI8932982
aI9617038
aI32119
aI6280
aI6285
aI6301
aI6325
aI6373
aI6387
aI6391
aI6701
aI6698
aI6699
aI32281
aI62103
aI138422
aI188917
aI211348
aI246698
aI268048
aI316727
aI330320
aI333657
aI334023
aI334207
aI334208
aI368955
aI413122
aI413095
aI492262
aI492948
aI520467
aI527408
aI531593
aI541241
aI545496
aI545827
aI585595
aI590405
aI594537
aI606643
aI614892
aI618044
aI634598
aI642352
aI661559
aI893493
aI1032151
aI1088434
aI1326890
aI1533473
aI1547884
aI1653841
aI2849449
aI3012759
aI3156164
asI577
(lp18
I4029
aI28758
aI30598
aI33970
aI34559
aI34570
aI34600
aI34781
aI35646
aI36646
aI36647
aI36649
aI36931
aI38763
aI39688
aI42034
aI43927
aI43967
aI44003
aI46004
aI46971
aI47163
aI47611
aI48077
aI48322
aI48556
aI51017
aI54421
aI54552
aI88325
aI93036
aI103844
aI105894
aI115138
aI117966
aI137021
aI141319
aI151563
aI159152
aI168136
aI173211
aI177271
aI177283
aI188463
aI191777
aI192134
aI223559
aI311458
aI344315
aI346419
aI356890
aI384809
aI384960
aI387992
aI396442
aI552123
aI555982
aI555987
aI582386
aI762282
aI1044649
aI1358121
aI1471742
aI1481310
aI1481312
aI1481318
aI1487083
aI1533913
aI1800785
asI586
(lp19
I6170682
aI6318178
aI6313623
aI6431486
aI6431519
aI6417782
aI1573741
aI6634901
aI6809862
aI2082590
aI2508157
aI10921391
aI4172
aI4179
aI36230
aI36316
aI305377
aI335258
aI338092
aI340775
aI344830
aI352908
aI381360
aI401009
aI420525
aI420708
aI424377
aI428220
aI541719
aI595749
aI626403
aI681644
aI723700
aI748214
aI758802
aI778276
aI964614
aI978586
aI986453
aI986320
aI1032561
aI1111477
aI1177370
aI1182574
aI1250356
aI1328320
aI1331625
aI1336084
aI1337540
aI1341329
aI1370776
aI1375470
aI1391047
aI1412111
aI1401251
aI1412287
aI1426983
aI1436017
aI1447831
aI1461829
aI1461855
aI1484757
aI1506020
aI1507349
aI1573700
aI1575276
aI1594366
aI1721383
aI1724918
aI1771929
aI1786830
aI1787181
aI1834998
aI1898164
aI1937309
aI1971609
aI2032164
aI2142312
aI2288982
aI2359341
aI2359375
aI2373064
aI2384049
aI2433612
aI2438819
aI2447481
aI2469859
aI2508092
aI2511189
aI2527975
aI2549455
aI2554981
aI2579601
aI2579633
aI2586109
aI4259032
aI5667887
asI75
(lp20
I1268919
aI1288757
aI6957323
aI11005
aI6061399
aI8072181
aI8072642
aI9492725
aI11620206
aI11690359
aI2732
aI2822
aI2836
aI3398
aI3775
aI4675
aI4824
aI5224
aI8454
aI9085
aI9881
aI11110
aI11415
aI16245
aI16661
aI20022
aI20880
aI26975
aI30069
aI30106
aI34408
aI39607
aI39804
aI40200
aI40331
aI49945
aI52013
aI418051
aI429777
aI444176
aI448222
aI449165
aI459840
aI466963
aI477151
aI482303
aI567068
aI679684
aI1288717
aI1348136
aI1348733
aI1541037
aI1595877
aI1634720
aI1634886
aI1830801
aI1848667
aI2001909
aI2023569
aI3159797
aI3166856
aI3857649
aI4558320
aI4564285
aI4770075
asI588
(lp21
I5375452
aI9631748
aI9834278
aI11612431
aI11612697
aI4168
aI4185
aI4678
aI6531
aI6542
aI7610
aI8429
aI16222
aI16968
aI16982
aI21620
aI467861
aI493982
aI495646
aI495659
aI497443
aI498755
aI498766
aI498877
aI502264
aI502293
aI506820
aI510062
aI511028
aI513269
aI514547
aI588376
aI590408
aI606208
aI621568
aI632800
aI634095
aI636839
aI636882
aI676107
aI676144
aI695867
aI850028
aI851961
aI1586483
aI1586547
aI1597960
aI1641531
aI1678606
aI1794782
aI1794935
aI1801678
aI2284548
aI2346670
aI2622438
aI3482243
aI5103639
asI79
(lp22
I5768372
aI5775376
aI5779318
aI6365814
aI6481356
aI7085449
aI7393458
aI3111855
aI7699621
aI4068866
aI4080000
aI7893465
aI8387779
aI769
aI1908
aI8115
aI8935
aI48774
aI193499
aI247706
aI294228
aI302365
aI325074
aI325227
aI328363
aI331205
aI332727
aI519495
aI521340
aI524785
aI527203
aI573344
aI719417
aI719436
aI844320
aI850711
aI900095
aI860761
aI860765
aI866296
aI866305
aI868706
aI871553
aI871556
aI880846
aI905305
aI912219
aI919056
aI930958
aI941167
aI1039279
aI1064860
aI1083239
aI1098040
aI1252494
aI1285767
aI1370074
aI1402148
aI1505029
aI1746005
aI1759856
aI2137316
aI2211544
aI2478784
aI2483931
aI2575495
aI3015453
aI3094569
aI3291301
aI4629684
aI5008060
aI5036903
aI5107551
asI80
(lp23
I6615929
aI1712309
aI1868192
aI7436607
aI8232286
aI9626229
aI10355675
aI10790543
aI149
aI195
aI362
aI30847
aI34706
aI134276
aI134388
aI134937
aI135220
aI142058
aI142527
aI150977
aI220142
aI220172
aI250970
aI326905
aI357643
aI390259
aI422371
aI498313
aI687992
aI722297
aI722324
aI736490
aI809851
aI822547
aI890841
aI1046810
aI1046826
aI1591561
aI1712211
aI1712228
aI1712234
aI1732149
aI1875215
aI1948351
aI1948373
aI1948523
aI2102832
aI2557501
aI3586139
aI3629376
aI3671065
aI3815296
aI4128843
aI4961074
aI5035367
asI92
(lp24
I4137885
aI335093
aI353797
aI5341
aI12755
aI1476
aI1538
aI1544
aI1577
aI1619
aI1627
aI1713
aI2716
aI2729
aI2754
aI2941
aI2973
aI3068
aI3088
aI3632
aI4247
aI4725
aI4994
aI4999
aI5004
aI5016
aI5445
aI6243
aI6330
aI6474
aI6659
aI7078
aI7274
aI8170
aI10149
aI11486
aI12012
aI12571
aI13056
aI15759
aI16875
aI17414
aI32485
aI33071
aI42642
aI50413
aI56702
aI59266
aI61153
aI63124
aI68527
aI94119
aI96757
aI96795
aI96815
aI96831
aI97885
aI319785
aI342284
aI343195
aI345649
aI360210
aI360230
aI363673
aI364380
aI382633
aI387008
aI417786
aI440611
aI612011
aI684170
aI699585
aI781455
aI781486
aI781516
aI854958
aI1380949
aI1395635
aI1445594
aI1455746
aI1488818
aI1515127
aI1519025
aI1569231
aI1603965
aI1655640
aI1891816
aI2196502
aI2869475
aI4128967
aI4137164
aI4148306
asI93
(lp25
I5955752
aI1022
aI169
aI849
aI855
aI1528
aI3874
aI4657
aI7758
aI8713
aI12385
aI16096
aI32395
aI43768
aI46859
aI49562
aI56518
aI71932
aI183406
aI213211
aI192797
aI213289
aI213304
aI213321
aI219618
aI251389
aI254155
aI254186
aI254280
aI265127
aI288197
aI295846
aI299703
aI305759
aI315646
aI316415
aI338382
aI341551
aI522226
aI557761
aI558249
aI747854
aI762487
aI762711
aI794512
aI795234
aI803484
aI834929
aI892669
aI1241344
aI1533975
aI1826672
aI1843245
aI2181588
aI2186878
aI2587171
aI2610016
aI2928893
aI3145758
aI3407183
aI3503214
aI3567260
aI3687882
aI3805464
aI3805519
aI3806285
aI3890835
aI4069507
aI4304540
aI4465660
asI607
(lp26
I5777297
aI5866880
aI5868608
aI1991897
aI4150136
aI4060248
aI4461490
aI4964950
aI4890119
aI4926402
aI5323431
aI5323456
aI7968451
aI9024225
aI9757921
aI10299080
aI10299287
aI10420218
aI71129
aI876334
aI899728
aI900846
aI902742
aI904712
aI905943
aI906047
aI907875
aI907899
aI908234
aI915095
aI915139
aI919832
aI919877
aI923628
aI924829
aI931424
aI932365
aI937430
aI947858
aI2035529
aI2169268
aI2288369
aI2288550
aI2317287
aI2812443
aI2837418
aI3094539
aI3182585
aI3595650
aI3685748
aI3685815
aI3709551
aI4743077
aI4774031
aI4788744
aI4788774
aI4796507
aI4865972
aI4900328
aI4906089
aI4955979
aI5002027
aI5196955
aI5232592
aI5277203
aI5297072
aI5298150
aI5298239
aI5323583
aI5323647
aI5325535
aI5325580
aI5516515
aI5537501
aI5537900
asI608
(lp27
I4573
aI8538076
aI9572577
aI10729138
aI4577
aI4596
aI4601
aI4612
aI4616
aI5352
aI5540
aI5550
aI7107
aI7199
aI7399
aI7685
aI7701
aI8324
aI8507
aI11757
aI43080
aI43449
aI470824
aI478833
aI480880
aI481942
aI484751
aI486753
aI490517
aI498292
aI498479
aI510120
aI510359
aI512568
aI519054
aI519378
aI526605
aI533484
aI534759
aI559777
aI567103
aI568284
aI575459
aI588410
aI589216
aI596009
aI605362
aI609270
aI639279
aI640397
aI641441
aI644753
aI644914
aI645524
aI660731
aI710639
aI951584
aI987729
aI1029528
aI1046746
aI1096185
aI1195716
aI1317129
aI1329978
aI1331453
aI1377204
aI1527322
aI1528294
asI609
(lp28
I6296315
aI6480810
aI1863101
aI6811929
aI6840252
aI4532614
aI8452780
aI8641499
aI9008764
aI9026333
aI9201660
aI9368859
aI9656086
aI10236412
aI10801882
aI10942103
aI11622473
aI27405
aI4582
aI4976
aI8607
aI27418
aI29437
aI29514
aI29729
aI45332
aI111853
aI142813
aI152047
aI156529
aI169590
aI214486
aI293795
aI422160
aI471422
aI481733
aI489335
aI489937
aI490147
aI492989
aI505471
aI508208
aI522681
aI529252
aI529516
aI542932
aI548739
aI559152
aI571706
aI595884
aI603569
aI611935
aI616017
aI639493
aI640176
aI703633
aI813300
aI822615
aI890664
aI928106
aI1015769
aI1128796
aI1139133
aI1155848
aI1169696
aI1275331
aI1285139
aI1545505
aI1574274
aI1587188
aI1683692
aI2429373
aI2457945
aI2459259
aI2868905
aI2915931
aI2989252
aI3019249
aI3019805
aI3022062
aI3041085
aI3066587
aI3104551
aI3199895
aI3221624
aI3222716
aI3393687
aI3452247
aI3705431
aI4092584
aI4171292
aI4325765
aI4800918
asI100
(lp29
I4569
aI237
aI344
aI350
aI2942
aI3117
aI3865
aI4446
aI4458
aI4567
aI5532
aI5782
aI13434
aI13544
aI15746
aI15758
aI17832
aI17480
aI17507
aI17666
aI17862
aI19736
aI20093
aI20110
aI20664
aI20683
aI31200
aI31264
aI33267
aI33797
aI36575
aI36576
aI42441
aI48023
aI48872
aI58080
aI98199
aI98215
aI104832
aI106352
aI118708
aI118736
aI135375
aI135951
aI195086
aI199483
aI199502
aI202372
aI202431
aI210049
aI249220
aI259621
aI276585
aI364665
aI385126
aI385258
aI395542
aI397257
aI401816
aI1054246
aI1252248
aI1285798
aI1285881
asI618
(lp30
I6380369
aI7143629
aI3529023
aI4595
aI4600
aI4605
aI4849
aI7194
aI31912
aI45240
aI45408
aI45603
aI45656
aI99880
aI312379
aI519753
aI526082
aI564725
aI610128
aI613533
aI625765
aI652939
aI769156
aI788409
aI861601
aI915475
aI1116096
aI1117742
aI1214371
aI1236857
aI1576620
aI1642433
aI1654844
aI1671773
aI1721571
aI1721660
aI1721713
aI1899717
aI1936471
aI1952393
aI1967709
aI1968045
aI1983963
aI1984287
aI2013050
aI2032293
aI2041627
aI2054449
aI2144852
aI2171579
aI2206163
aI3528357
aI3529082
aI3609473
aI4745777
aI4745809
aI4747177
aI4782958
aI5061531
aI5242667
asI117
(lp31
I5982305
aI7450921
aI7444504
aI7450395
aI7547955
aI363
aI369
aI423
aI668
aI669
aI1794
aI1576
aI1653
aI3885
aI4385
aI5459
aI5682
aI13364
aI16298
aI53290
aI67699
aI76551
aI99348
aI168921
aI171279
aI223949
aI223833
aI326729
aI327441
aI534144
aI564798
aI545338
aI564785
aI993960
aI1453133
aI1457315
aI2642707
aI2740868
aI2740972
aI3432644
aI3433094
aI4066279
aI4172534
aI4304268
aI4308122
aI4309169
aI4309371
aI4359770
aI4420413
aI4421220
aI5015923
aI5130200
asI118
(lp32
I5698501
aI5698580
aI5785305
aI5786782
aI5786810
aI5786881
aI5798663
aI5813136
aI5840704
aI5920560
aI6080005
aI6865942
aI6906321
aI7004388
aI7019235
aI7073440
aI7100897
aI3632173
aI3682199
aI3732527
aI4029315
aI4029374
aI5799080
aI5846017
aI5846063
aI5852192
aI7937654
aI7941899
aI7941911
aI7942742
aI7924844
aI8861333
aI8867132
aI8867221
aI8907260
aI8874517
aI8874654
aI8886980
aI8888318
aI8922828
aI8922918
aI8923346
aI8917712
aI8917910
aI9714078
aI9731178
aI9745445
aI10762636
aI388
aI395
aI922
aI408460
aI505989
aI527411
aI732825
aI1077954
aI1141458
aI1733436
aI1733523
aI1733557
aI1877893
aI2367186
aI2597495
aI2597478
aI2597506
aI2887064
aI2887125
aI2887264
aI2934876
aI3107396
aI3381207
aI3381214
aI3381559
aI3476339
aI3527190
aI3957661
aI4171431
aI5239727
aI5319810
asI635
(lp33
I5980694
aI5980999
aI6020503
aI6022464
aI6035436
aI6062465
aI6077362
aI6188416
aI6193707
aI6198237
aI6219844
aI6239560
aI6268367
aI6269305
aI6270759
aI6298781
aI6348749
aI6385872
aI6873795
aI6973165
aI6969664
aI7350937
aI7598258
aI8701538
aI8790214
aI8874747
aI8988642
aI9019790
aI9280169
aI9280335
aI9280293
aI9569158
aI9570093
aI9832497
aI9832585
aI9833084
aI10702765
aI17513
aI22393
aI22465
aI36886
aI50318
aI64794
aI83468
aI101801
aI104962
aI117754
aI158640
aI204688
aI284676
aI332845
aI352920
aI401200
aI401220
aI421056
aI455131
aI492044
aI528733
aI1197857
aI1208775
aI1212954
aI1370002
asI637
(lp34
I6654483
aI2300289
aI4034673
aI4689
aI6232
aI6382
aI11043
aI33664
aI35300
aI35367
aI35374
aI35487
aI35501
aI36072
aI37031
aI37102
aI38255
aI38625
aI40839
aI51016
aI51082
aI51096
aI58262
aI61079
aI61082
aI78562
aI78636
aI155739
aI155857
aI160273
aI160336
aI176641
aI176688
aI176607
aI185256
aI185363
aI220261
aI220286
aI220334
aI220496
aI255933
aI551381
aI551403
aI609081
aI609111
aI1095065
aI1098306
aI1103682
aI1103771
aI1103874
aI1104959
aI1109942
aI1110188
aI1110903
aI1120975
aI1132862
aI1134405
aI1134846
aI1137352
aI1144540
aI1145062
aI1153440
aI1154798
aI1155474
aI1155998
aI1160848
aI1544180
aI1554491
aI1554713
aI1554853
aI1556153
aI1557774
aI1560310
aI1566100
aI1568895
aI1569003
aI1569042
aI1675836
aI2258540
aI2275773
aI2297105
aI2314715
aI2319651
aI2327800
aI2328621
aI2346049
aI3187147
asI131
(lp35
I11287042
aI11287125
aI11287451
aI888
aI4371
aI55768
aI51156
aI53486
aI53493
aI78905
aI80541
aI90535
aI110522
aI118015
aI119180
aI124427
aI124829
aI137517
aI151450
aI156279
aI165325
aI172918
aI185204
aI224078
aI228738
aI242276
aI242305
aI245768
aI252615
aI304410
aI447402
aI456348
aI459908
aI472610
aI559569
aI560014
aI560419
aI580791
aI656871
aI661185
aI661242
aI665466
aI668947
aI688933
aI688974
aI692980
aI833118
aI905118
aI937808
aI979173
aI1043120
aI1175502
aI1175513
aI1204432
aI2634114
aI2634562
aI2680192
asI653
(lp36
I1480174
aI6541119
aI5617
aI5628
aI5629
aI5641
aI5677
aI5699
aI6868
aI7002
aI13119
aI13662
aI14000
aI14632
aI14748
aI17247
aI20145
aI20723
aI27281
aI27295
aI27911
aI32831
aI33854
aI42261
aI42266
aI43111
aI56740
aI61835
aI63293
aI80127
aI118996
aI137035
aI143594
aI144127
aI144182
aI144193
aI156200
aI157745
aI165536
aI183910
aI257852
aI275590
aI313101
aI509761
aI611292
aI766828
aI794155
aI1146723
aI1533650
aI2290454
aI3384609
aI4445922
asI142
(lp37
I754
aI7226
aI16548
aI19638
aI24221
aI25373
aI28172
aI29820
aI29922
aI29993
aI30113
aI30606
aI32001
aI34311
aI34550
aI36023
aI37628
aI37982
aI39039
aI71173
aI72142
aI85058
aI91061
aI152572
aI157400
aI163379
aI243788
aI261603
aI262723
aI272613
aI290326
aI324722
aI515296
aI582803
aI581152
aI671516
aI672870
aI674297
aI681215
aI681881
aI702038
aI781805
aI792742
aI792753
aI839407
aI916600
aI962432
aI966462
aI966556
aI966602
aI970546
aI977022
aI1037226
aI1091388
aI1230071
aI1301373
aI1307587
aI1311268
aI1894003
aI1906286
aI2283600
aI2318012
aI2561290
aI2620961
asI145
(lp38
I94875
aI10018304
aI610
aI735
aI972
aI1823
aI4176
aI4205
aI7227
aI7272
aI7275
aI7281
aI7323
aI8948
aI9242
aI11465
aI11459
aI11496
aI19111
aI19151
aI19152
aI22723
aI29324
aI30417
aI30433
aI41785
aI41827
aI42201
aI43616
aI43654
aI43691
aI47003
aI53398
aI54500
aI68524
aI68697
aI68740
aI74003
aI80261
aI92269
aI93930
aI94877
aI98205
aI102012
aI102089
aI108848
aI163236
aI172720
aI177122
aI179745
aI183033
aI193000
aI214662
aI214666
aI384759
aI433638
aI965082
aI987669
aI988282
aI4084723
aI5531407
asI146
(lp39
I1743002
aI2013880
aI75516
aI116517
aI121971
aI122000
aI122906
aI122932
aI122959
aI123057
aI123109
aI127583
aI128754
aI133847
aI135183
aI135674
aI136107
aI136165
aI141353
aI155076
aI163960
aI198499
aI201799
aI240598
aI246726
aI246742
aI246755
aI259087
aI259145
aI284582
aI290276
aI291446
aI291456
aI291613
aI301964
aI301992
aI306861
aI343965
aI354245
aI363318
aI381224
aI386450
aI424431
aI429014
aI429028
aI448615
aI469436
aI481625
aI485173
aI487775
aI496175
aI507394
aI507752
aI529746
aI529768
aI529821
aI533118
aI539123
aI539140
aI583611
aI596737
aI659713
aI779295
aI825487
aI836839
aI840552
aI841269
aI859752
aI865042
aI946739
aI957693
aI982623
aI987188
aI1104649
aI1256867
aI1257097
aI1278625
aI1335287
aI1342544
aI1342856
aI1364395
aI1380021
aI1412179
aI1413772
aI1749387
aI1922590
aI2013840
aI2118189
aI2141054
aI4238762
asI147
(lp40
I1598156
aI4508457
aI502
aI471
aI469
aI483
aI702
aI5223
aI7200
aI7891
aI7994
aI9153
aI10644
aI60745
aI65103
aI63210
aI69445
aI73071
aI90130
aI152699
aI220672
aI805165
aI822790
aI1055506
aI1059837
aI1061386
aI1062184
aI1064370
aI1065263
aI1065482
aI1065589
aI1066359
aI1070836
aI1070796
aI1077253
aI1125316
aI1172028
aI1299839
aI1318908
aI1414093
aI1428450
aI1494407
aI1508416
aI1541340
aI1544758
aI1544836
aI1551625
aI1621451
aI1663809
aI1663853
aI1665101
aI1732512
aI1758100
aI1849630
aI2512571
aI2935980
aI3509275
aI4762277
aI4914919
aI4927736
asI148
(lp41
I6171518
aI6462205
aI7156583
aI7157794
aI7817745
aI7991542
aI9207912
aI55560
aI57084
aI58024
aI58257
aI58425
aI58464
aI71193
aI78344
aI81170
aI90442
aI94338
aI94625
aI94646
aI98265
aI103816
aI107336
aI107306
aI110296
aI112949
aI113242
aI113332
aI113515
aI113549
aI114696
aI114714
aI121846
aI130503
aI143681
aI147042
aI147487
aI155600
aI201166
aI201301
aI203850
aI232487
aI243052
aI249403
aI261632
aI264445
aI264451
aI271846
aI282585
aI286003
aI286041
aI307811
aI968263
aI2020502
aI3571992
aI3706191
aI4074082
aI5175494
asI151
(lp42
I6108829
aI6431436
aI6431678
aI6435770
aI6478556
aI4913570
aI9826458
aI493
aI514
aI645
aI40669
aI53571
aI62246
aI146668
aI151893
aI177515
aI177710
aI179685
aI183194
aI186043
aI186046
aI197976
aI285148
aI286517
aI301435
aI331139
aI551022
aI590543
aI884760
aI895594
aI906634
aI910673
aI914659
aI919746
aI920240
aI924656
aI928287
aI929852
aI931604
aI943894
aI944029
aI1027774
aI1057798
aI1212891
aI1222492
aI1234365
aI1340205
aI1720933
aI1819261
aI1852016
aI2127791
aI2206265
aI3865445
asI161
(lp43
I5723587
aI7749428
aI5370260
aI5306646
aI8453457
aI8453112
aI8453283
aI8453299
aI8583047
aI8582914
aI8583009
aI8583103
aI8583139
aI8583158
aI8583203
aI8583330
aI8583418
aI8583990
aI8598845
aI8598914
aI8598994
aI8599091
aI8611439
aI8611481
aI8611503
aI8612445
aI8612572
aI8612598
aI8706880
aI8754327
aI8831834
aI11475234
aI11475351
aI536
aI3375
aI4098
aI34568
aI34599
aI34607
aI37390
aI54131
aI69015
aI83514
aI94414
aI195616
aI236801
aI263026
aI263085
aI263327
aI409360
aI409375
aI435957
aI510718
aI514800
aI577447
aI669183
aI669198
aI669210
aI669226
aI789360
aI850566
aI913020
aI928885
aI928894
aI990016
aI1189216
aI1201115
aI1214407
aI1314670
aI1573182
aI1610730
aI1610797
aI1616372
aI1619436
aI1631807
aI1652273
aI1668963
aI1716591
aI2953947
aI5106984
aI5138209
asI162
(lp44
I5746281
aI2222405
aI2232585
aI8568679
aI8580544
aI10251446
aI799
aI3975
aI4246
aI5201
aI9002
aI10898
aI11529
aI14876
aI16634
aI18000
aI31296
aI83079
aI116369
aI187936
aI198477
aI198522
aI208042
aI210144
aI244184
aI332535
aI382406
aI386400
aI446893
aI446990
aI452167
aI483057
aI512083
aI528144
aI539160
aI540684
aI546644
aI554836
aI626077
aI648217
aI659750
aI702764
aI737311
aI771971
aI777804
aI1087815
aI2222200
aI2237242
aI2965912
aI3457764
aI3926321
asI163
(lp45
I6379459
aI6755866
aI6755876
aI6756026
aI7034338
aI7060890
aI7061015
aI7061039
aI3738940
aI3843136
aI5462855
aI5401834
aI5402838
aI9093023
aI9883963
aI10001667
aI1163016
aI10018560
aI11066866
aI576
aI3868
aI15239
aI15272
aI23368
aI23624
aI24045
aI24099
aI24660
aI24664
aI24667
aI24691
aI25755
aI25790
aI26742
aI27359
aI27448
aI27504
aI29615
aI29621
aI30714
aI30891
aI38160
aI38449
aI39222
aI42960
aI163568
aI168570
aI241789
aI318897
aI365050
aI1147872
aI1147953
aI1154932
aI1156816
aI1162068
aI1163391
aI1169785
aI1169918
aI1169996
aI2251686
aI2393384
aI2443749
aI2564633
aI2569936
aI2570462
aI2572055
aI2604989
aI2611805
aI2632934
aI3738092
aI3828511
aI3829031
aI3835742
aI5288275
asI164
(lp46
I1992934
aI5807773
aI8433140
aI8882184
aI8982383
aI10216256
aI22666
aI1739
aI1773
aI1783
aI3360
aI3492
aI5667
aI7829
aI16483
aI22896
aI29985
aI35529
aI43065
aI125266
aI162058
aI165694
aI182465
aI229561
aI251786
aI296396
aI322173
aI393796
aI402101
aI451281
aI511418
aI524449
aI723928
aI802120
aI822039
aI834900
aI855869
aI861493
aI863979
aI871346
aI945584
aI1199892
aI1238904
aI1323013
aI1328424
aI1390525
aI1834304
aI1840203
aI1863793
aI1871058
aI2144552
aI2248022
aI2256111
aI3037173
aI3354645
aI3374589
aI4481365
aI5006465
aI5127544
aI5157781
aI5234952
asI680
(lp47
I6352498
aI6352787
aI6447182
aI6447423
aI7034172
aI4492439
aI4503437
aI7762199
aI7825743
aI7846188
aI9122016
aI10691185
aI5093
aI5129
aI5313
aI5415
aI5581
aI6426
aI6564
aI7496
aI7531
aI8351
aI12613
aI14179
aI14351
aI17437
aI17556
aI18998
aI19339
aI21299
aI42950
aI47198
aI47213
aI51415
aI56008
aI57708
aI61169
aI67527
aI68327
aI69934
aI87543
aI88639
aI91215
aI138029
aI155616
aI166127
aI289311
aI423722
aI445225
aI463482
aI481976
aI514782
aI535498
aI559928
aI569321
aI644917
aI644987
aI712020
aI729605
aI818942
aI828593
aI1149088
aI1149091
aI1175436
aI1225268
aI1270615
aI1371510
aI1584054
aI1627747
aI1828807
aI1842575
aI1884301
aI1943682
aI2158454
aI2158532
aI2159775
aI2159830
aI2198288
aI2657326
aI2710645
aI4448055
aI4463486
aI4468396
aI4543766
aI4651274
aI4651294
aI5253150
asI192
(lp48
I8893485
aI10969845
aI651
aI746
aI747
aI752
aI753
aI1202
aI1292
aI1305
aI1466
aI1624
aI2002
aI2013
aI2196
aI2808
aI3155
aI3164
aI3320
aI4506
aI4533
aI6174
aI6735
aI13590
aI15857
aI16107
aI26752
aI41928
aI45534
aI45579
aI56118
aI108503
aI117173
aI117583
aI125911
aI132566
aI136469
aI144302
aI145679
aI152384
aI156779
aI170524
aI177673
aI183567
aI183639
aI186291
aI196966
aI200340
aI200574
aI211493
aI211524
aI217805
aI222442
aI223379
aI224830
aI230409
aI240223
aI250867
aI258952
aI269298
aI277608
aI313653
aI325426
aI349705
aI416220
aI423992
aI461026
aI476087
aI586182
aI599759
aI668488
aI810602
aI872558
aI959540
aI1022171
aI1073989
aI1076349
aI1078631
aI1091867
aI1093042
aI1096924
aI1109623
aI1127956
aI1199731
aI1215133
aI1218398
aI1782835
aI1940884
aI2215164
aI2416182
aI2571859
aI2637817
aI2690045
aI2863762
aI2927737
aI3850311
aI3996048
aI4564222
asI198
(lp49
I2696538
aI1920
aI8239899
aI495115
aI815
aI1474
aI1490
aI2008
aI2073
aI2620
aI2768
aI4381
aI4384
aI4493
aI5164
aI5644
aI6687
aI6688
aI6691
aI6902
aI7284
aI7792
aI8635
aI8916
aI9062
aI10050
aI10713
aI10900
aI12098
aI12099
aI12192
aI16411
aI19377
aI19382
aI20870
aI21851
aI23295
aI23300
aI24023
aI25844
aI26672
aI27441
aI47458
aI271362
aI325443
aI346678
aI377745
aI402565
aI402584
aI412409
aI462630
aI470095
aI498550
aI961819
aI1206636
aI1219289
aI1326474
aI1661322
aI1666687
aI1700860
aI2661399
aI2661473
aI2950779
aI3278965
aI4667025
asI200
(lp50
I11486102
aI6825
aI2850
aI1707
aI912
aI1157
aI673
aI681
aI704
aI834
aI846
aI890
aI894
aI898
aI982
aI1149
aI1399
aI1447
aI1459
aI2050
aI2057
aI2148
aI2178
aI2179
aI2181
aI2517
aI5785
aI5818
aI6780
aI6845
aI6846
aI8730
aI8776
aI9886
aI11017
aI13092
aI13351
aI13663
aI14455
aI15676
aI16697
aI18102
aI20470
aI20666
aI821846
aI821979
aI822511
aI825074
aI826050
aI826505
aI826618
aI829050
aI833852
aI844987
aI877454
aI878727
aI927744
aI987801
aI1049982
aI1110927
asI202
(lp51
I5642655
aI5986666
aI6041473
aI6056433
aI6078291
aI6078957
aI6082325
aI6160492
aI6197484
aI8513694
aI9883084
aI9899195
aI4388
aI4421
aI4432
aI5492
aI5680
aI8364
aI8401
aI8442
aI8456
aI10587
aI10760
aI11094
aI12986
aI13059
aI17206
aI14185
aI14217
aI15809
aI15858
aI15863
aI17997
aI18039
aI18062
aI18090
aI18134
aI19159
aI19175
aI19434
aI20049
aI21481
aI23808
aI23981
aI24016
aI25667
aI25940
aI26063
aI31708
aI39269
aI39382
aI39393
aI40693
aI41050
aI51681
aI55848
aI55856
aI57885
aI89295
aI119122
aI181597
aI295512
aI419294
aI457257
aI680280
aI832343
aI832725
aI838802
aI861575
aI861585
aI861943
aI862016
aI866336
aI866466
aI875841
aI876241
aI880290
aI1483652
aI2114609
aI3359527
aI4012281
aI4047819
aI5385750
asI205
(lp52
I7556043
aI3257349
aI728
aI725
aI1271
aI1824
aI1826
aI3799
aI3793
aI3896
aI4738
aI5185
aI6135
aI7192
aI9143
aI20823
aI22493
aI23650
aI24358
aI24437
aI24480
aI299974
aI337129
aI363763
aI511360
aI520801
aI520834
aI531041
aI533613
aI547432
aI547449
aI563900
aI603442
aI607555
aI660946
aI684422
aI709129
aI714320
aI872390
aI1129109
aI1162929
aI1281987
aI1594386
aI1888084
aI1956787
aI1985747
aI2042087
aI2061769
aI2194408
aI2226791
aI2276321
aI2414347
aI2474494
aI3221578
aI3238777
asI206
(lp53
I6710785
aI7207979
aI20243
aI20349
aI4043
aI1238
aI695
aI739
aI877
aI942
aI950
aI968
aI1175
aI1257
aI1381
aI2484
aI2871
aI2890
aI3873
aI3939
aI4035
aI4096
aI4296
aI4299
aI4302
aI4706
aI5584
aI5587
aI5823
aI6262
aI7478
aI20207
aI20229
aI20358
aI20531
aI20498
aI20953
aI42408
aI42438
aI42577
aI43910
aI46382
aI46404
aI46595
aI56652
aI56660
aI59182
aI59291
aI59946
aI63273
aI266118
aI297969
aI372124
aI554276
aI732810
aI2851577
aI2851738
asI208
(lp54
I5871873
aI8823272
aI9520413
aI39960
aI66837
aI150535
aI150545
aI202605
aI237104
aI243894
aI244467
aI262427
aI266352
aI289174
aI290394
aI297172
aI300185
aI339455
aI368994
aI381214
aI386684
aI387085
aI400364
aI401593
aI416649
aI440547
aI547625
aI561300
aI584050
aI598167
aI659120
aI671693
aI738121
aI760334
aI795214
aI813003
aI848579
aI864232
aI865716
aI895136
aI911930
aI913409
aI960646
aI934661
aI960832
aI960886
aI994155
aI1018075
aI1043298
aI1140069
aI1148827
aI1245145
aI1308723
aI2030231
aI2045257
aI2045475
aI2083754
aI2254932
aI2581469
aI2733492
aI2738083
aI2923710
aI3375087
aI3612320
aI3926960
aI3937410
aI4330202
aI4367037
asI219
(lp55
I9023164
aI751
aI1771
aI1861
aI2396
aI3033
aI3112
aI5425
aI6631
aI6831
aI10573
aI17304
aI423172
aI433493
aI501077
aI503293
aI509259
aI509906
aI600796
aI603960
aI603979
aI614828
aI636322
aI885204
aI893229
aI895223
aI896308
aI898545
aI898973
aI899535
aI900695
aI900720
aI900807
aI1143728
aI1196310
aI1200568
aI1200629
aI1322575
aI1328503
aI1330785
aI1347282
aI1347639
aI1369991
aI1371028
aI1374645
aI1375749
aI1433135
aI1434819
aI1442239
aI1450178
aI1478917
aI1634377
aI1649815
aI1696674
aI1709623
aI1716621
aI1726804
aI1749481
aI2042376
aI3974170
aI4166019
asI223
(lp56
I6050497
aI6050697
aI6050978
aI7266401
aI7286322
aI7286711
aI7342679
aI7342822
aI10307730
aI10339179
aI33478
aI33485
aI33523
aI33540
aI33554
aI42747
aI53404
aI53424
aI57316
aI141812
aI141856
aI141879
aI143031
aI143044
aI143054
aI143068
aI143778
aI149732
aI149767
aI237062
aI241903
aI256315
aI324930
aI324936
aI328032
aI619992
aI620058
aI620087
aI620107
aI620163
aI620426
aI620725
aI620981
aI621520
aI622341
aI622364
aI622747
aI622757
aI623786
aI624923
aI624941
aI624949
aI624957
aI624985
aI625209
aI627500
aI627525
aI627535
aI627567
aI627776
aI627825
aI627904
aI627919
aI628689
aI628682
aI629006
aI631459
aI631544
aI631175
aI631199
aI631281
aI631309
aI631504
aI631724
aI633122
aI633150
aI639780
aI639802
aI639825
aI639835
aI639866
aI640862
aI640975
aI640992
aI646849
aI646856
aI646864
aI3508572
aI3809309
aI3809599
aI3809660
aI3916582
aI4116299
aI4457840
aI5101148
asI224
(lp57
I6262235
aI6308295
aI6321867
aI6421629
aI7790017
aI7953428
aI9579343
aI7188
aI13031
aI832
aI837
aI1546
aI1621
aI2703
aI2895
aI6458
aI7547
aI10819
aI10844
aI12018
aI15793
aI16760
aI24153
aI24538
aI24972
aI25230
aI25246
aI26094
aI32467
aI32597
aI32708
aI37002
aI38935
aI39208
aI40029
aI41847
aI50196
aI53862
aI67002
aI74479
aI80489
aI99847
aI104492
aI209376
aI440972
aI495651
aI657498
aI848637
aI879913
aI925955
aI1321051
aI1321064
aI1559190
aI2279896
aI2288345
aI2365880
aI2673361
aI2713506
aI2713804
aI3100279
aI3546361
aI3786514
aI5567815
asI227
(lp58
I7203790
aI7659240
aI7684701
aI7684791
aI9191283
aI9940102
aI2910
aI795
aI797
aI844
aI1044
aI1047
aI1114
aI1135
aI1996
aI2012
aI2131
aI2219
aI2673
aI2901
aI2946
aI2959
aI4502
aI4508
aI4509
aI4669
aI4741
aI4746
aI5338
aI5368
aI5360
aI17569
aI17577
aI17582
aI17618
aI17990
aI18027
aI19403
aI19421
aI19443
aI19724
aI19798
aI19778
aI20803
aI22321
aI22347
aI23713
aI23718
aI27450
aI27477
aI27480
aI27539
aI29767
aI30204
aI30907
aI36726
aI45574
aI45581
aI46154
aI52692
aI54289
aI57099
aI69863
aI70471
aI70508
aI73369
aI82464
aI92071
aI113499
aI172337
aI175822
aI177642
aI177658
aI185274
aI186143
aI186416
aI186466
aI197109
aI200548
aI208934
aI230348
aI242566
aI437599
aI437626
aI442552
aI450224
aI450259
aI450276
aI450319
aI454985
aI457732
aI483795
aI495441
aI1277167
aI2335678
asI231
(lp59
I1023
aI1037
aI1066
aI1914
aI3234
aI4400
aI4447
aI4462
aI7509
aI17441
aI37591
aI37621
aI41638
aI54991
aI81674
aI91682
aI137818
aI147584
aI148108
aI151887
aI152131
aI152202
aI152347
aI152930
aI156468
aI165746
aI166464
aI166622
aI166773
aI177274
aI177288
aI178079
aI178865
aI178994
aI179050
aI179178
aI181386
aI181365
aI181916
aI182368
aI182463
aI186023
aI186242
aI186894
aI228746
aI556806
aI1138831
aI1151749
aI1491504
aI2918712
aI3131843
aI3235438
aI4930834
asI242
(lp60
I5944856
aI6013285
aI8966581
aI9629701
aI10290417
aI10378654
aI10392633
aI10508544
aI10678730
aI11009455
aI1873
aI1889
aI4232
aI7519
aI8327
aI10603
aI14152
aI15380
aI17389
aI19155
aI19168
aI25416
aI27313
aI33937
aI37495
aI37510
aI41192
aI43139
aI45241
aI47456
aI53347
aI53399
aI55607
aI55629
aI59973
aI206993
aI223754
aI223796
aI238950
aI264414
aI336372
aI339663
aI339716
aI342972
aI355319
aI362049
aI426911
aI460310
aI463372
aI486606
aI514748
aI519067
aI560038
aI613681
aI728594
aI775604
aI1135553
aI1162936
aI1558472
aI2413910
aI3818839
aI3852740
aI3994448
aI4138737
aI4141072
aI4320907
asI25
(lp61
I3651
aI93
aI2708
aI12516
aI72
aI99
aI564
aI1176
aI1297
aI1589
aI1615
aI2232
aI2301
aI2409
aI2719
aI2769
aI2882
aI2898
aI2924
aI4677
aI5095
aI5343
aI5453
aI6811
aI6852
aI7981
aI9051
aI9101
aI16578
aI10384
aI10446
aI11350
aI13114
aI13144
aI13452
aI13513
aI14125
aI16124
aI17026
aI20731
aI20732
aI24310
aI24375
aI26122
aI32600
aI62725
aI64080
aI64099
aI68609
aI93834
aI106894
aI106899
aI106906
aI106910
aI162042
aI228380
aI233138
aI235805
aI285496
aI291206
aI596921
aI742700
aI758901
aI758906
aI762485
aI768729
aI769614
aI840386
aI994376
aI1002912
aI1080004
aI1099614
aI1213137
aI1446098
aI1561521
aI1561677
aI1731807
aI2246481
aI3258575
aI3365594
aI4504470
aI4542961
aI4599835
asI247
(lp62
I6381456
aI6778
aI7833
aI8992
aI16830
aI21463
aI30863
aI30934
aI30884
aI30906
aI31662
aI54658
aI60113
aI75518
aI93486
aI169158
aI179879
aI183905
aI183965
aI188894
aI189342
aI191166
aI191192
aI191205
aI191272
aI191293
aI191702
aI191749
aI192540
aI192928
aI194721
aI197470
aI249304
aI332538
aI335365
aI451311
aI459816
aI518961
aI519007
aI519049
aI522916
aI526650
aI527046
aI537642
aI537819
aI587719
aI588098
aI591096
aI627895
aI727281
aI773724
aI831697
aI926349
aI946655
aI956016
aI1076964
aI1089336
aI1133644
aI1169210
aI1169214
aI1235377
aI1734564
aI2505565
aI2505638
aI2510767
aI2510785
aI2511001
aI5094050
aI5239887
asI257
(lp63
I89011
aI25669
aI1069
aI1071
aI1081
aI1226
aI1263
aI1913
aI3310
aI3325
aI5661
aI5674
aI5728
aI5848
aI5861
aI5945
aI5975
aI6190
aI6208
aI6227
aI6732
aI6759
aI6766
aI6984
aI7695
aI8443
aI8446
aI11903
aI11983
aI12024
aI14058
aI15537
aI15577
aI15660
aI15686
aI22101
aI25658
aI25678
aI27194
aI27440
aI27479
aI27483
aI27494
aI29493
aI29638
aI29651
aI31728
aI33841
aI37347
aI38942
aI79068
aI165305
aI169382
aI173765
aI176992
aI185250
aI185428
aI2316987
aI2316990
aI3012259
asI269
(lp64
I2510
aI2851
aI1121
aI1392
aI1378
aI1430
aI1413
aI1479
aI1495
aI1487
aI1545
aI1555
aI1963
aI1971
aI1953
aI1959
aI1986
aI1987
aI1992
aI2022
aI2041
aI2042
aI2064
aI2499
aI2514
aI2521
aI2535
aI2787
aI2803
aI2818
aI3120
aI3617
aI3621
aI3639
aI3669
aI3654
aI3677
aI19507
aI19552
aI19864
aI19981
aI20014
aI20059
aI20070
aI20104
aI20120
aI20268
aI20285
aI20368
aI20405
aI20526
aI20570
aI25169
aI21966
aI22136
aI22262
aI25184
aI25229
aI25791
aI25748
aI25780
aI25988
aI26008
aI26093
aI26120
aI26301
aI26324
aI26521
aI27595
aI28091
aI28326
aI28524
aI28569
aI28600
aI28618
aI30376
aI30391
aI32046
aI32124
aI32318
aI32547
aI32723
aI32805
asI277
(lp65
I7347830
aI2486
aI2913
aI3454
aI5018
aI5024
aI7364
aI7366
aI7820
aI8140
aI8306
aI8355
aI8827
aI8894
aI13645
aI16113
aI16434
aI17781
aI17918
aI18255
aI19787
aI20043
aI20988
aI22566
aI22836
aI26101
aI30632
aI37208
aI37845
aI38312
aI40943
aI41522
aI45557
aI45690
aI47408
aI48908
aI52794
aI53112
aI82322
aI82387
aI97971
aI120823
aI121225
aI127137
aI190944
aI200726
aI321423
aI347580
aI360030
aI476726
aI533960
aI939119
aI2602546
aI4695224
aI4727309
aI5472599
asI278
(lp66
I5974042
aI6014853
aI6015316
aI6028377
aI6120216
aI6134176
aI6134429
aI6183660
aI6581273
aI7229540
aI4062293
aI4516982
aI4508050
aI5405151
aI8306886
aI8338336
aI8338486
aI8470773
aI8462631
aI8587687
aI9989910
aI10618308
aI11391178
aI3135
aI4443
aI25756
aI56279
aI56325
aI56399
aI57275
aI61217
aI61226
aI66312
aI66374
aI91344
aI132764
aI145322
aI161230
aI239206
aI239232
aI241184
aI248037
aI268132
aI268393
aI280868
aI304824
aI330585
aI336813
aI355500
aI355600
aI355933
aI432589
aI446321
aI457275
aI477314
aI550535
aI564443
aI589694
aI638668
aI694490
aI790459
aI796999
aI1054404
aI1062194
aI1184322
aI1187372
aI1292023
aI1322194
aI1425677
aI1978806
aI1978835
aI2047266
aI2153662
aI2199162
aI3863047
aI3931838
aI4012963
aI4117633
aI4119411
aI4144940
aI4237767
aI4602272
aI4603040
aI4678950
aI4871541
aI5339678
aI5405360
aI5408003
aI5576959
asI279
(lp67
I5982692
aI5984007
aI36300
aI8954590
aI3300
aI3313
aI6407
aI7802
aI7803
aI8731
aI8789
aI8798
aI9679
aI9837
aI9925
aI10319
aI16345
aI18724
aI18909
aI19100
aI19668
aI19775
aI24291
aI24301
aI24343
aI25454
aI27114
aI29312
aI32567
aI37145
aI36549
aI37182
aI37152
aI37155
aI37296
aI37862
aI51593
aI56631
aI82247
aI135330
aI135364
aI250087
aI250543
aI256933
aI264059
aI269899
aI282423
aI293890
aI300914
aI300917
aI309532
aI312646
aI312791
aI319657
aI320524
aI327556
aI328410
aI328415
aI333803
aI332762
aI332753
aI340387
aI349300
aI353576
aI383586
aI491843
aI1101514
aI1134732
aI2357702
aI2393119
aI2465341
aI2517768
aI2520222
aI3240227
aI3346951
aI3353316
aI3371329
aI3440229
aI3605414
asI285
(lp68
I6330806
aI6335447
aI6525648
aI6778665
aI2073257
aI6926706
aI10438931
aI2571
aI2576
aI3052
aI3658
aI5614
aI5639
aI5663
aI6434
aI7213
aI10616
aI10632
aI11878
aI13737
aI16178
aI16202
aI16308
aI16299
aI16328
aI198279
aI338191
aI375512
aI375628
aI417889
aI610790
aI760646
aI762027
aI824588
aI846564
aI889495
aI1138310
aI1172361
aI1572451
aI1881911
aI1882194
aI2052135
aI2067712
aI2090901
aI2090920
aI2091018
aI2091044
aI2091063
aI2094375
aI2137250
aI2144308
aI2159730
aI2187737
aI2991965
aI3443462
aI3620893
asI290
(lp69
I1537
aI2199
aI2364
aI5619
aI6556
aI6546
aI6579
aI30735
aI13947
aI13978
aI29106
aI22704
aI23082
aI23935
aI25137
aI25329
aI25395
aI25968
aI26105
aI26164
aI26455
aI26688
aI26731
aI26888
aI27256
aI28009
aI28235
aI28290
aI28862
aI29100
aI29207
aI30389
aI30622
aI32229
aI32371
aI32839
aI44909
aI62578
aI79229
aI79241
aI79266
aI192697
aI192952
aI292711
aI305579
aI305990
aI308803
aI309156
aI321193
aI788130
aI807120
aI829998
aI864516
aI864999
aI870526
aI1406099
aI2231514
asI299
(lp70
I6038682
aI6052575
aI7450496
aI7475760
aI7656634
aI7663361
aI9996827
aI4831
aI5914
aI5960
aI5998
aI6071
aI6097
aI6233
aI6311
aI6337
aI7775
aI11199
aI11217
aI11311
aI20212
aI20353
aI20370
aI20745
aI20781
aI20895
aI22369
aI22421
aI26782
aI26868
aI28377
aI28478
aI50565
aI50644
aI59418
aI59479
aI59942
aI63291
aI76835
aI84462
aI84609
aI87821
aI103688
aI117508
aI128277
aI128740
aI267488
aI268991
aI425226
aI429076
aI429877
aI443380
aI443471
aI1106283
aI2517587
aI2518611
aI2519327
aI2539994
aI2541267
aI2608317
aI2633005
aI2745538
aI2745960
aI2790272
asI302
(lp71
I7164584
aI7245893
aI5823023
aI1306
aI3374
aI6049
aI6088
aI6120
aI6230
aI6398
aI31044
aI9279
aI16128
aI20668
aI20909
aI31047
aI42575
aI52768
aI66667
aI116810
aI133707
aI133795
aI223619
aI223654
aI244120
aI244169
aI266869
aI332300
aI342020
aI474771
aI481042
aI571994
aI593289
aI593688
aI666693
aI684568
aI684576
aI808803
aI808848
aI808880
aI808943
aI808978
aI809022
aI809093
aI836472
aI836824
aI836885
aI836901
aI836936
aI837049
aI840240
aI840619
aI853621
aI859597
aI879821
aI879311
aI879815
aI880055
aI880112
aI899476
aI911601
aI942394
aI1106734
aI1110336
aI1167229
aI1178753
aI1257265
aI1365633
aI1396202
aI1478038
aI1507608
aI1541539
aI1625169
aI1625300
aI1625870
aI1630947
aI1675359
aI1708624
aI1768453
aI1768534
aI1787893
aI1813095
aI1941095
aI2526031
aI2526182
aI2526358
aI2529385
aI2537952
aI2541179
aI2541418
aI4198771
aI4199691
aI4611814
aI4612132
aI4852861
asI303
(lp72
I1704988
aI1773403
aI6890893
aI8658854
aI8887417
aI9144776
aI9145944
aI9473093
aI1711
aI1728
aI1901
aI2509
aI6435
aI40771
aI54306
aI54505
aI54685
aI54773
aI54841
aI56714
aI56699
aI56788
aI56764
aI56860
aI56904
aI94057
aI95617
aI98186
aI102132
aI103356
aI170850
aI213297
aI214283
aI214313
aI214308
aI226288
aI226304
aI259902
aI262419
aI267059
aI273174
aI273247
aI291350
aI291867
aI314885
aI345179
aI354862
aI567868
aI683647
aI683843
aI840318
aI840887
aI889116
aI889187
aI1008320
aI1044804
aI1128151
aI1128238
aI1201275
aI1208325
aI1752405
aI1773356
aI1909584
aI1980826
aI2105736
aI2298026
aI2389135
aI2524028
aI2648900
aI2908453
aI3046283
aI3133342
aI3266687
aI3460234
aI3523112
asI308
(lp73
I42284
aI4042
aI1660
aI1673
aI1821
aI1833
aI2545
aI2550
aI2557
aI2790
aI2799
aI2960
aI3428
aI3437
aI4383
aI4386
aI5292
aI6256
aI6911
aI7467
aI9001
aI9004
aI21628
aI23768
aI23771
aI27921
aI30388
aI30700
aI41600
aI42145
aI42348
aI42351
aI43734
aI45796
aI452763
aI750036
aI750059
aI775630
aI775644
aI775697
aI775713
aI775735
aI776751
aI779577
aI780267
aI1336440
aI1336482
aI1336584
aI1368139
aI1368226
aI1395239
aI1401881
aI1411365
aI1411397
aI1454801
aI1460036
aI1499929
aI1531893
asI318
(lp74
I5657002
aI5819484
aI1361202
aI6366178
aI6513841
aI6659196
aI7123054
aI7590696
aI4101226
aI11110696
aI1553
aI1606
aI1620
aI2832
aI5078
aI9361
aI33302
aI119403
aI119458
aI131982
aI132010
aI136419
aI141734
aI142946
aI167464
aI228477
aI260094
aI262677
aI365931
aI416970
aI434669
aI442045
aI442059
aI509571
aI570229
aI687488
aI1051458
aI1126028
aI1126324
aI1132838
aI1145926
aI1162226
aI1220864
aI1223784
aI1225903
aI1229456
aI1323922
aI1447029
aI1447061
aI1447083
aI1447090
aI1447102
aI1467985
aI1515679
aI1708680
aI1709150
aI1751351
aI1752067
aI1765921
aI1766101
aI1772949
aI1841399
aI2068568
aI2141601
aI2293359
aI2411127
aI2420683
aI3710742
aI3780025
aI4137123
aI4145691
aI4146949
aI4264064
aI4348585
aI4567120
aI4952145
aI5004690
aI5011014
aI5011055
asI322
(lp75
I5598578
aI1306956
aI1360087
aI2884031
aI3672490
aI4551131
aI4551179
aI8478218
aI8509490
aI8512512
aI8651812
aI2726
aI3941
aI4015
aI4068
aI6173
aI9012
aI9210
aI11318
aI11586
aI11791
aI12023
aI12669
aI12925
aI13290
aI15082
aI37196
aI37210
aI37273
aI37416
aI65151
aI69027
aI96698
aI105013
aI112055
aI128297
aI168098
aI168110
aI185991
aI202560
aI303471
aI326577
aI396369
aI408688
aI431468
aI1214388
aI1295068
aI1312641
aI1337884
aI1350024
aI1352246
aI1354725
aI1368913
aI1417029
aI1419550
aI1464162
aI1548503
aI1575423
aI1618492
aI1648296
aI1692229
aI1703989
aI1743279
aI1791597
aI1791762
aI1834926
aI1871643
aI1883672
aI1924040
aI2220178
aI2287033
aI3417081
aI3612904
aI3614283
aI3681186
aI3885662
aI4340718
aI4473990
aI4547341
aI4572637
aI4628833
aI4631580
aI4642205
aI4642331
aI4654561
aI4697920
aI4706857
aI4766855
aI4924103
aI5058436
aI5284438
aI5334030
aI5335564
asI55
(lp76
I5864260
aI5869586
aI4378
aI9493454
aI1006
aI1057
aI78
aI190
aI253
aI258
aI276
aI310
aI911
aI993
aI1043
aI1437
aI1583
aI1679
aI2564
aI3678
aI4208
aI4390
aI4883
aI5650
aI6154
aI6163
aI6447
aI7065
aI8350
aI11741
aI14108
aI15172
aI16552
aI16903
aI17424
aI17436
aI17485
aI23267
aI24042
aI24856
aI25572
aI58343
aI61980
aI68960
aI145455
aI164964
aI214687
aI239170
aI239605
aI249341
aI255550
aI255920
aI345827
aI345850
aI345857
aI352448
aI352306
aI380531
aI382913
aI385033
aI402252
aI477268
aI510277
aI584980
aI593140
aI649272
aI653021
aI1162861
aI1162939
aI1207964
aI1208242
aI1217904
aI1231554
aI1231660
aI1237334
aI1237597
aI1267748
aI1447003
aI1564277
aI1608523
aI2075930
aI2265107
asI340
(lp77
I5709417
aI5723986
aI5751117
aI4867653
aI4903714
aI5414595
aI5414621
aI5916583
aI8054678
aI1669
aI2158
aI2995
aI3099
aI60464
aI68633
aI68727
aI288900
aI461796
aI485168
aI508874
aI618398
aI624118
aI647135
aI647375
aI647390
aI649463
aI935306
aI944895
aI1001461
aI1002643
aI1027691
aI1032489
aI1092604
aI1092936
aI1098718
aI1120055
aI1125924
aI1139607
aI1154617
aI1200299
aI1225391
aI1988273
aI1991328
aI2037378
aI2165006
aI2226029
aI2226093
aI2352761
aI3095726
aI3102443
aI3111236
aI3118526
aI3120138
aI3152607
aI3267216
aI3469908
aI4002631
aI4797590
aI4810766
aI4866675
aI4889857
aI4995674
aI5047788
aI5174074
aI5266949
asI341
(lp78
I1587
aI2548
aI3151
aI4707
aI4729
aI5112
aI5346
aI5820
aI6344
aI6349
aI6355
aI6883
aI7087
aI7177
aI8565
aI9076
aI9637
aI13064
aI22510
aI22587
aI24167
aI27831
aI31857
aI33296
aI33381
aI37147
aI37565
aI39183
aI39870
aI59197
aI59202
aI60759
aI65045
aI124263
aI124312
aI146382
aI150963
aI162752
aI162768
aI167568
aI195334
aI197678
aI209797
aI209953
aI210044
aI210672
aI214807
aI247749
aI252880
aI261484
aI286463
aI296329
aI302561
aI302621
aI326277
aI333570
aI354578
aI354589
aI365680
aI365710
aI365747
aI371804
aI383357
aI816954
aI817267
aI1346680
aI1346760
aI2998716
aI3276130
aI3276203
asI350
(lp79
I6445191
aI1683
aI2525
aI2601
aI2605
aI2712
aI2722
aI3638
aI4139
aI4911
aI5046
aI5056
aI5278
aI6183
aI10066
aI11662
aI12823
aI14210
aI14908
aI15609
aI17451
aI17453
aI17488
aI18502
aI18760
aI18802
aI23669
aI27069
aI34000
aI35195
aI37574
aI37606
aI37648
aI39809
aI51250
aI55917
aI135911
aI142221
aI143135
aI165876
aI214678
aI309735
aI369016
aI386795
aI525174
aI617840
aI671878
aI895423
aI1428684
aI1662780
aI4506125
asI657
(lp80
I6020132
aI6084736
aI6106528
aI21825
aI9051675
aI9051709
aI10317643
aI10390506
aI4869
aI4997
aI5025
aI5654
aI5673
aI5679
aI6860
aI6861
aI7222
aI8431
aI14122
aI21863
aI21872
aI23604
aI24777
aI29357
aI29454
aI31630
aI46707
aI125699
aI238839
aI261034
aI286351
aI327914
aI336351
aI342331
aI342365
aI342464
aI345606
aI346648
aI347148
aI347251
aI347828
aI375320
aI375444
aI397101
aI464340
aI490686
aI516271
aI519320
aI526316
aI526322
aI547229
aI762623
aI764361
aI841975
aI843768
aI1019857
aI1246409
aI1685164
aI5658212
asI370
(lp81
I5582996
aI5599891
aI5622611
aI5625916
aI5626645
aI5626920
aI5627763
aI5627842
aI5636537
aI5641079
aI5640782
aI5652025
aI5652365
aI5652592
aI5653445
aI5653482
aI5667993
aI5668038
aI5782212
aI5888207
aI1823986
aI4101479
aI5626221
aI8763843
aI8750810
aI10096840
aI10743199
aI10840633
aI11565078
aI2023
aI2033
aI2077
aI3150
aI3230
aI3368
aI3861
aI7795
aI13050
aI13054
aI41120
aI43162
aI60682
aI245475
aI306533
aI335494
aI350416
aI363874
aI366126
aI366132
aI366717
aI366781
aI399479
aI444780
aI455808
aI482315
aI482333
aI497739
aI497881
aI535301
aI549626
aI571523
aI686488
aI686548
aI818762
aI819002
aI1000113
aI1005518
aI1009592
aI1009621
aI1022577
aI1031222
aI1041970
aI1140667
aI1247984
aI1496018
aI1574417
aI1767407
aI1823380
aI2284092
aI3442693
aI5518801
aI5539718
aI5568155
aI5568585
aI5572506
asI376
(lp82
I5746154
aI5908876
aI6928463
aI7192232
aI1142857
aI2923
aI9601
aI19908
aI154338
aI371518
aI371556
aI1115981
aI1193274
aI1193318
aI1206272
aI1206728
aI1221230
aI1230688
aI1232843
aI1255045
aI1255096
aI1257631
aI1259444
aI1260614
aI1265690
aI1268078
aI1269218
aI1269246
aI1270712
aI1296861
aI1296488
aI1296513
aI1296915
aI1296983
aI1296945
aI1308391
aI1308422
aI1315732
aI1338141
aI1348311
aI1447091
aI1492120
aI1502944
aI1580405
aI1580442
aI1580532
aI1650575
aI1656957
aI1657171
aI1737173
aI1874530
aI1881141
aI1881181
aI2514938
aI2674418
aI2766539
asI381
(lp83
I6227274
aI6281052
aI7597728
aI5376514
aI8340477
aI540856
aI2873
aI3231
aI3765
aI3781
aI4051
aI4519
aI4724
aI5772
aI6813
aI6836
aI6847
aI6910
aI7651
aI11000
aI11540
aI11605
aI13699
aI13724
aI14831
aI15838
aI15873
aI16873
aI17796
aI20092
aI20787
aI20740
aI20827
aI21088
aI22140
aI25063
aI29677
aI32533
aI34300
aI37071
aI37662
aI39457
aI40101
aI42778
aI42785
aI43366
aI47498
aI49406
aI58478
aI58599
aI67125
aI81022
aI125898
aI162065
aI177583
aI186377
aI325826
aI482647
aI540985
aI591467
aI1131625
aI1287362
aI1620451
aI1657305
aI1657307
aI1824836
aI2175599
aI2280436
aI2281286
aI3424015
aI4900553
aI5486727
aI5538609
asI384
(lp84
I6683895
aI2199795
aI7280873
aI7729326
aI7729454
aI4042872
aI33603
aI8731317
aI8759568
aI2416
aI2088
aI2090
aI2233
aI2402
aI3385
aI3777
aI3812
aI4079
aI4629
aI6481
aI6489
aI6508
aI7572
aI9365
aI29053
aI29082
aI70685
aI74308
aI91519
aI95655
aI108211
aI108330
aI109540
aI109653
aI132165
aI190902
aI197807
aI201157
aI201206
aI206206
aI215387
aI215395
aI215635
aI220475
aI475636
aI475658
aI902671
aI1605521
aI1748170
aI1976971
aI2038217
aI2091846
aI2199830
aI2207047
aI2207029
aI2212882
aI3440240
aI3462701
aI4159810
aI4793092
aI4793158
asI398
(lp85
I7589513
aI3654067
aI3654070
aI9065392
aI9650654
aI9692077
aI9741960
aI2423
aI2253
aI2345
aI2496
aI4713
aI4767
aI5307
aI6941
aI8329
aI10271
aI13155
aI23493
aI25083
aI38378
aI278103
aI346126
aI346151
aI389490
aI442722
aI443163
aI456663
aI456808
aI470569
aI503711
aI548786
aI666012
aI714910
aI752303
aI763698
aI812201
aI839312
aI851236
aI1225282
aI1607737
aI1613820
aI1631187
aI1810104
aI1886852
aI1938100
aI1977896
aI2006867
aI2201053
aI2216720
aI3594827
asI417
(lp86
I5921556
aI8191418
aI8191491
aI9383000
aI11002721
aI2439
aI2446
aI2524
aI6738
aI6741
aI10144
aI18228
aI27078
aI49712
aI85941
aI86045
aI115159
aI136422
aI153618
aI165388
aI168733
aI174295
aI176401
aI176827
aI178566
aI178592
aI178891
aI223171
aI244683
aI295806
aI659444
aI770811
aI877960
aI893786
aI893822
aI947958
aI948297
aI953093
aI1070960
aI1494233
aI1494278
aI1526336
aI1546618
aI1596052
aI1727036
aI1734767
aI2074293
aI2134357
aI2152107
aI2374945
aI2768279
aI3621161
aI3728239
aI3799796
aI3799650
aI3799672
aI4020635
aI4310414
asI423
(lp87
I1110281
aI2469
aI2575
aI2588
aI2675
aI2724
aI2751
aI2755
aI2759
aI3095
aI3096
aI3111
aI3590
aI3786
aI3823
aI4175
aI4182
aI4189
aI4219
aI4243
aI5676
aI5709
aI6083
aI6086
aI6289
aI6295
aI6411
aI6643
aI6619
aI10383
aI11965
aI11970
aI13164
aI20545
aI24003
aI24007
aI24011
aI24027
aI52157
aI90015
aI165842
aI578330
aI619736
aI658838
aI748116
aI757209
aI774959
aI782971
aI783343
aI921452
aI996876
aI1009842
aI1020960
aI1099078
aI1106109
aI1166062
aI1172674
aI1261857
aI1272759
aI1280583
aI1316264
aI1332105
aI1347469
aI1347509
aI1379898
aI1403462
aI1644291
aI1688605
aI2151563
aI4869173
asI430
(lp88
I6098499
aI5794909
aI9882244
aI1133231
aI3048
aI3066
aI3079
aI3092
aI3661
aI3827
aI4344
aI4805
aI5041
aI5232
aI5980
aI6869
aI6996
aI7018
aI7486
aI7756
aI8051
aI8861
aI12164
aI12965
aI13195
aI13470
aI13483
aI14124
aI15583
aI17331
aI17367
aI20191
aI20637
aI20785
aI20845
aI21602
aI22399
aI22449
aI22573
aI22832
aI27280
aI28389
aI32662
aI41081
aI41088
aI44231
aI74446
aI123567
aI127706
aI132950
aI133940
aI134528
aI135177
aI152909
aI152800
aI154769
aI159560
aI162087
aI164481
aI168571
aI173087
aI175701
aI187254
aI199376
aI208276
aI208951
aI213332
aI233941
aI495681
aI495708
aI520312
aI529045
aI537482
aI537895
aI546972
aI561632
aI571333
aI639452
aI640465
aI667067
aI687257
aI737647
aI749355
aI798042
aI802119
aI1126047
aI4546520
aI5224859
aI5225118
asI431
(lp89
I6033427
aI6188213
aI6203272
aI6251929
aI6267108
aI6282782
aI6520246
aI6574415
aI6596544
aI6582162
aI6596752
aI1707953
aI6681935
aI6762024
aI6833580
aI6914216
aI7011676
aI7229499
aI8523611
aI8574242
aI8637812
aI8645057
aI8741622
aI9572186
aI9829141
aI10245275
aI10801575
aI10851692
aI10902597
aI10881712
aI10881856
aI11003713
aI11195570
aI11474671
aI2593
aI2602
aI2608
aI2645
aI2700
aI2718
aI2756
aI2938
aI3019
aI3037
aI3053
aI3860
aI5142
aI5167
aI5250
aI6034
aI6350
aI7434
aI7672
aI9134
aI10862
aI11934
aI19301
aI19310
aI96042
aI240102
aI240170
aI240528
aI241089
aI420140
aI420407
aI785920
aI1155791
aI1202905
aI1207652
aI1367643
aI1380669
aI1380654
aI1580142
aI1847759
aI1901070
aI1924313
aI2780964
aI3703672
aI4412874
aI4603793
aI4624795
aI4747621
aI4935748
aI5004043
aI5006732
aI5028123
aI5184752
asI432
(lp90
I7605088
aI4030511
aI4030812
aI8524942
aI8892564
aI8960050
aI2611
aI2636
aI2688
aI2720
aI2762
aI2774
aI2844
aI2965
aI2985
aI3024
aI3036
aI3750
aI4192
aI5234
aI5407
aI7880
aI7885
aI8236
aI8249
aI9321
aI9327
aI9410
aI10436
aI10443
aI11330
aI11412
aI12489
aI12527
aI12655
aI12667
aI17140
aI17225
aI17232
aI17469
aI18328
aI29647
aI48225
aI53107
aI70405
aI111954
aI156330
aI160828
aI203859
aI206486
aI210933
aI210946
aI215721
aI275683
aI275826
aI300834
aI301064
aI312270
aI321845
aI325165
aI342322
aI416333
aI740769
aI1024742
aI1125153
aI1149047
aI1162984
aI1163165
aI1163238
aI1163262
aI1197560
aI1198281
aI1198332
aI1231406
aI1445889
aI1703148
aI1755196
aI1755219
aI1775247
aI1850064
aI1850243
aI2375934
aI2665733
aI2692596
aI2735141
aI2847617
aI2856780
aI2965314
aI3411595
aI4012529
aI4032127
aI5581815
asI438
(lp91
I2474229
aI5107
aI42894
aI44899
aI46837
aI46871
aI46893
aI50900
aI50921
aI57844
aI69188
aI80434
aI80561
aI113086
aI135933
aI159915
aI202721
aI203377
aI206764
aI223666
aI238793
aI242478
aI244419
aI293597
aI348837
aI352234
aI429722
aI430587
aI441009
aI441618
aI508876
aI497030
aI502775
aI518703
aI533869
aI567179
aI613146
aI649593
aI711518
aI779644
aI813835
aI813838
aI923087
aI942583
aI1030118
aI1089849
aI1219594
aI1270815
aI1280380
aI1309400
aI1326828
aI1351843
aI1376735
aI1436077
aI1438184
aI1451866
aI1592611
aI1633971
aI1854352
aI2441530
aI2734271
aI2734874
aI2767750
aI2917748
aI2909072
aI2982629
aI3039364
aI3091145
aI3184668
aI3184773
aI3232405
aI3572044
asI673
(lp92
I6714680
aI1953396
aI4952
aI4086024
aI4929
aI4949
aI4986
aI5005
aI5011
aI5022
aI5032
aI5080
aI7742
aI7752
aI7985
aI7973
aI7980
aI8011
aI8877
aI9862
aI10168
aI10182
aI11006
aI11050
aI11147
aI11300
aI11519
aI12131
aI17947
aI17985
aI18334
aI18567
aI49890
aI52239
aI53228
aI54648
aI54813
aI55117
aI55146
aI55241
aI57591
aI57583
aI57607
aI57622
aI57658
aI57673
aI57887
aI72919
aI94668
aI153861
aI183009
aI183111
aI295797
aI303076
aI318808
aI318982
aI341117
aI358048
aI358066
aI367192
aI369760
aI375792
aI417325
aI422970
aI440430
aI528499
aI610350
aI685714
aI687308
aI854711
aI1009567
aI1029404
aI1046329
aI1839726
aI1839771
aI1875214
aI2454723
aI3420200
asI457
(lp93
I5750679
aI992928
aI3003
aI2915
aI3012
aI3040
aI3065
aI3073
aI3082
aI3359
aI4099
aI4104
aI5686
aI5693
aI6776
aI6592
aI8241
aI305892
aI305938
aI436402
aI439249
aI439273
aI440574
aI540120
aI541852
aI542934
aI562821
aI562940
aI567724
aI571430
aI572008
aI572192
aI573355
aI573785
aI573846
aI573993
aI573995
aI573968
aI573984
aI574038
aI576401
aI576407
aI591771
aI593520
aI598001
aI613161
aI627618
aI640381
aI641085
aI646587
aI650660
aI651008
aI661066
aI668114
aI673410
aI701075
aI718224
aI723959
aI726977
aI735157
aI785867
aI854830
aI983681
aI984788
aI985182
aI985189
aI985205
aI985248
aI987759
aI987779
aI988576
aI989594
aI991771
aI991762
aI992190
aI992165
aI992193
aI992202
aI992808
aI996436
aI997064
aI999656
aI1007219
aI1015814
aI1849975
aI1853613
aI2345531
aI2811052
aI2846172
aI2892291
aI2897737
aI2898980
aI3356382
aI4347466
asI483
(lp94
I9803375
aI3220
aI3242
aI4119
aI4870
aI6770
aI6971
aI6978
aI8471
aI8483
aI8494
aI8591
aI8920
aI13879
aI13893
aI19147
aI50704
aI50728
aI50789
aI56191
aI57779
aI61248
aI59456
aI60361
aI61241
aI71725
aI71758
aI71767
aI72488
aI78411
aI91295
aI97646
aI112592
aI119141
aI125602
aI137078
aI147908
aI147928
aI156424
aI157097
aI166412
aI198278
aI215868
aI224865
aI228178
aI311470
aI339620
aI483834
aI526939
aI539892
aI544518
aI544555
aI555286
aI688388
aI772896
aI922238
aI932196
aI1275437
aI1534846
aI1685883
aI1839410
aI2285011
aI2435805
aI3037083
aI3037790
aI3089733
aI3276661
aI3277254
asI486
(lp95
I6012456
aI6148671
aI6159006
aI6166441
aI9030728
aI11643009
aI3217
aI3224
aI3225
aI3285
aI4559
aI4563
aI4565
aI4683
aI5735
aI7463
aI7455
aI7466
aI7483
aI7485
aI7488
aI7513
aI9412
aI9425
aI9464
aI10689
aI10861
aI10877
aI15496
aI15703
aI16057
aI16203
aI17141
aI17428
aI17467
aI17956
aI18035
aI18985
aI19244
aI19452
aI19918
aI20127
aI20164
aI21500
aI22355
aI22379
aI25467
aI31494
aI38664
aI38673
aI38734
aI38746
aI40919
aI40945
aI41247
aI41465
aI43061
aI42876
aI42913
aI42982
aI44958
aI45010
aI51262
aI53090
aI130694
aI152247
aI152280
aI160874
aI267342
aI267366
aI313523
aI339719
aI354551
aI367333
aI438572
aI438498
aI438403
aI438456
aI438511
aI441769
aI457050
aI457432
aI486662
aI494295
aI506194
aI514717
aI514739
aI523004
aI597554
aI1043061
aI1043080
aI1151862
aI1162122
aI2496847
aI2846407
aI3183112
aI3225296
asI489
(lp96
I8526
aI11776
aI3261
aI3277
aI3291
aI3316
aI3321
aI4441
aI4614
aI4633
aI4642
aI6453
aI6940
aI9398
aI10857
aI11781
aI12836
aI13043
aI19287
aI19296
aI19302
aI19309
aI19313
aI27007
aI27472
aI27485
aI33776
aI36763
aI38770
aI130245
aI182013
aI186220
aI203604
aI208029
aI217954
aI220166
aI242918
aI264835
aI264855
aI277620
aI295173
aI297498
aI297708
aI323500
aI367831
aI379941
aI387595
aI392642
aI456499
aI456383
aI550569
aI550619
aI589989
aI555610
aI555617
aI560110
aI560161
aI564679
aI568173
aI571464
aI580938
aI708927
aI708963
aI755782
aI767780
aI776477
aI797168
aI819459
aI833652
aI876141
aI896261
aI938834
aI938906
aI961663
aI989270
aI1000441
aI1006446
aI1113163
aI1304173
aI1611507
aI1726945
aI1773956
aI3334440
aI3419957
aI5644447
asI492
(lp97
I5724216
aI7526677
aI7526662
aI7655385
aI3673384
aI4018968
aI4477003
aI5384522
aI11199590
aI11226110
aI11498140
aI11600462
aI3273
aI5562
aI5705
aI36815
aI77462
aI88047
aI90035
aI113435
aI114150
aI114156
aI124112
aI130578
aI151804
aI151857
aI156075
aI160728
aI160763
aI180811
aI181133
aI181243
aI181513
aI184684
aI206456
aI224446
aI224459
aI259807
aI259804
aI274211
aI274216
aI282086
aI285241
aI300824
aI301480
aI319480
aI525347
aI525374
aI525572
aI531689
aI618668
aI618684
aI628840
aI647563
aI647599
aI680077
aI680088
aI814454
aI832632
aI832642
aI1197073
aI1469526
aI1469536
aI1469556
aI1641217
aI1664832
aI2277804
aI2278387
aI2278429
aI2295662
aI2295729
aI2658402
aI3044335
aI3044494
aI3049793
aI3507023
aI3593997
aI3919709
aI3927807
aI3927908
aI3927912
aI5022541
aI5110230
aI5116155
aI5367783
aI5454407
asI497
(lp98
I383672
aI26447
aI19705
aI19708
aI19752
aI22886
aI27821
aI39807
aI39818
aI39842
aI44939
aI44937
aI47515
aI48389
aI48398
aI48482
aI56747
aI96971
aI97974
aI109580
aI176538
aI287105
aI287225
aI363425
aI383489
aI383661
aI424932
aI425095
aI469338
aI574318
aI807783
aI817293
aI817143
aI817222
aI817677
aI817765
aI821785
aI821835
aI822120
aI822887
aI825117
aI825786
aI842623
aI846607
aI865127
aI850882
aI854128
aI870981
aI872715
aI873310
aI873886
aI875277
aI885934
aI891332
aI903750
aI916173
aI1071012
aI1379430
aI1576061
aI1581078
aI1581404
aI2021188
aI2096068
aI2214870
aI2312621
asI501
(lp99
I1643020
aI6597395
aI6695606
aI6713506
aI7179581
aI7292245
aI7506559
aI4154077
aI5890796
aI8421463
aI9369881
aI11692066
aI11692144
aI11692222
aI11699020
aI4833
aI3329
aI3635
aI3645
aI3691
aI3769
aI4056
aI4187
aI4541
aI5302
aI5952
aI12578
aI14293
aI24916
aI29668
aI45624
aI127152
aI132754
aI166764
aI200499
aI204548
aI232749
aI243985
aI343991
aI698196
aI733377
aI801965
aI1030876
aI1153132
aI1153161
aI1176276
aI1176309
aI1229246
aI1232540
aI1234980
aI1448604
aI1458200
aI1486449
aI1486467
aI1504941
aI1550119
aI1555264
aI1565216
aI1583217
aI1584556
aI1592474
aI1636966
aI1648614
aI1663170
aI1694935
aI1697951
aI1725183
aI1765712
aI1789851
aI1795276
aI1812142
aI1971239
aI1971320
aI1971333
aI2052456
aI2236148
aI2494162
aI2494241
aI2494462
aI2496336
aI2519470
aI3258348
aI3453862
aI3453923
aI3454038
aI3514606
aI3591050
aI3599917
aI3767038
aI3958249
aI3982237
aI4138854
aI4231901
aI4868276
asI506
(lp100
I9266435
aI9914333
aI11263767
aI5514
aI6826
aI12984
aI13302
aI28250
aI30260
aI31446
aI31569
aI38326
aI51114
aI68543
aI89517
aI102726
aI125074
aI153069
aI176106
aI223422
aI233727
aI234250
aI248337
aI259224
aI266292
aI277959
aI284379
aI295772
aI310592
aI318110
aI318192
aI324242
aI335091
aI338159
aI345265
aI356340
aI368566
aI371592
aI379126
aI400414
aI400684
aI462747
aI557003
aI566497
aI577938
aI587891
aI636359
aI981643
aI988709
aI1013095
aI1039521
aI1040744
aI1100003
aI1120999
aI1207832
aI1213734
aI1234054
aI1631365
aI1650487
aI1716594
aI2653201
aI3531907
aI3942844
as.