(lp0
I323508
aI24638
aI1055655
aI1289200
aI711993
aI615731
aI936922
aI147508
aI1192063
aI1402865
aI203573
aI850932
aI1216593
aI1483362
aI823239
aI776648
aI1187786
aI488671
aI714665
aI942492
aI1136139
aI7695
aI309341
aI881887
aI848614
aI163439
aI1035684
aI439987
aI219155
aI1184050
aI474065
aI143245
aI983048
aI609354
aI620500
aI1139447
aI1197842
aI1061354
aI273626
aI632224
aI459863
aI599835
aI1563510
aI331141
aI1273237
aI235511
aI1155174
aI416281
aI469644
aI1333592
aI1126911
aI856859
aI753421
aI1042944
aI766684
aI284875
aI1343896
aI546776
aI1086505
aI1420189
aI1157135
aI454428
aI903358
aI1026836
aI1237864
aI586252
aI254714
aI130442
aI918788
aI626243
aI1218668
aI1366216
aI721541
aI1377943
aI982087
aI1063471
aI457263
aI84843
aI1103129
aI633690
aI1127514
aI1117326
aI1259411
aI664811
aI1296273
aI1475608
aI1648
aI1073644
aI1304266
aI1437038
aI368594
aI916150
aI792466
aI318936
aI417069
aI253773
aI761654
aI906312
aI494474
aI128585
aI396409
aI607799
aI1164235
aI1123867
aI135548
aI170621
aI678070
aI626108
aI1528705
aI1284268
aI70694
aI1160119
aI350694
aI479456
aI101876
aI718347
aI502597
aI1412741
aI805007
aI53121
aI620073
aI1306530
aI1211296
aI1335688
aI820352
aI1321197
aI360125
aI168428
aI379556
aI1186842
aI552866
aI450684
aI188448
aI288863
aI25866
aI682041
aI342621
aI920238
aI1392699
aI1436679
aI1546455
aI503735
aI685
aI1544348
aI603699
aI23504
aI1318678
aI672136
aI1053473
aI411687
aI966685
aI338051
aI800440
aI1392147
aI683137
aI538212
aI1233099
aI1123236
aI512595
aI562947
aI804503
aI166286
aI1213567
aI67211
aI489713
aI535148
aI1230543
aI563228
aI456822
aI163691
aI180653
aI1368833
aI505042
aI638314
aI80890
aI589173
aI1301282
aI1100258
aI201710
aI1526102
aI250328
aI1514992
aI1473585
aI1490388
aI315725
aI529655
aI465963
aI868362
aI1248723
aI486650
aI460065
aI824739
aI348633
aI8411
aI488046
aI268515
aI69658
aI838715
aI1036657
aI327520
aI1436323
aI1067718
aI269744
aI931189
aI489916
aI489202
aI1077228
aI480038
aI16945
aI1565466
aI502737
aI643732
aI449781
aI1306556
aI201509
aI531701
aI147937
aI551263
aI659868
aI16715
aI704628
aI386778
aI613536
aI282850
aI71371
aI736917
aI1249479
aI1151689
aI1029941
aI141590
aI682849
aI326347
aI282823
aI1091784
aI1226293
aI1472671
aI1112087
aI1137516
aI855079
aI1449027
aI279298
aI1079588
aI789195
aI927972
aI784580
aI1478597
aI768359
aI1371202
aI513779
aI1539782
aI371389
aI955008
aI273665
aI1084640
aI594925
aI102281
aI1070683
aI748944
aI1191162
aI334713
aI216049
aI825099
aI1240898
aI1499125
aI477522
aI1228467
aI1387036
aI1437804
aI324423
aI1467291
aI579149
aI1503901
aI404264
aI380772
aI845263
aI1502694
aI770751
aI1293827
aI399191
aI1217904
aI549717
aI1040791
aI1253642
aI1393215
aI576813
aI703983
aI336242
aI202349
aI1510639
aI446944
aI432653
aI471533
aI978206
aI341666
aI1323042
aI288738
aI817967
aI1139592
aI699700
aI2006
aI1021415
aI1046700
aI570766
aI853969
aI671066
aI1305535
aI1204940
aI1417391
aI767515
aI839763
aI401278
aI219010
aI349934
aI976397
aI28878
aI280279
aI343094
aI423261
aI987559
aI36816
aI1178701
aI1343695
aI624906
aI290255
aI251680
aI1561477
aI576231
aI1244880
aI861117
aI398228
aI1324720
aI709807
aI212216
aI260955
aI1425467
aI379529
aI242925
aI953720
aI1133641
aI1550502
aI418570
aI893504
aI367719
aI580910
aI912574
aI387144
aI1209583
aI699873
aI560276
aI1303230
aI289544
aI524724
aI1513186
aI1300037
aI433773
aI301875
aI996920
aI555270
aI1033462
aI1095929
aI169677
aI419683
aI1319549
aI1368297
aI688334
aI564764
aI1156496
aI1372578
aI786186
aI1389636
aI1409432
aI1103319
aI1418493
aI386121
aI1296679
aI270201
aI398890
aI774274
aI1162981
aI1162548
aI1001226
aI687425
aI388995
aI1136251
aI859359
aI1564101
aI283505
aI347857
aI1506753
aI499405
aI724925
aI1057618
aI1493136
aI494271
aI752612
aI1217911
aI276461
aI61697
aI729497
aI1509229
aI1388201
aI55061
aI1438696
aI1186692
aI421078
aI1090444
aI40341
aI310659
aI1049090
aI400765
aI396618
aI340355
aI426591
aI1027046
aI1361610
aI535022
aI1116343
aI1258751
aI416811
aI1312897
aI558085
aI499125
aI214260
aI75306
aI400383
aI153782
aI662746
aI477064
aI1149621
aI1373269
aI294466
aI203861
aI989534
aI865773
aI825987
aI630005
aI284897
aI396804
aI1129834
aI1012693
aI684032
aI1549833
aI743600
aI1066470
aI912607
aI241345
aI1058860
aI192046
aI494465
aI678379
aI13834
aI1491952
aI381127
aI101356
aI1245
aI510000
aI1389209
aI1379471
aI255055
aI928364
aI212165
aI770778
aI566634
aI549142
aI164892
aI1270550
aI1145390
aI426909
aI1391631
aI1138414
aI1422958
aI1485130
aI353422
aI420779
aI480314
aI1330870
aI446711
aI1494807
aI914206
aI1342333
aI664650
aI1032725
aI1485661
aI407305
aI964658
aI701567
aI1131220
aI239729
aI1488589
aI45276
aI264121
aI564498
aI1185522
aI1244733
aI820480
aI1383114
aI372422
aI663129
aI678314
aI993252
aI1331913
aI863907
aI1027244
aI1517815
aI756563
aI1502742
aI398303
aI357083
aI961468
aI1538805
aI1322932
aI1171165
aI1120960
aI992753
aI124603
aI25191
aI1423404
aI1186467
aI990410
aI650990
aI8297
aI216275
aI627997
aI306177
aI1503166
aI1504910
aI1192978
aI19090
aI1250922
aI822144
aI966670
aI1192851
aI1497521
aI1004217
aI42322
a.