(lp0
I2811350
aI2791933
aI2748366
aI2731709
aI2693057
aI7340644
aI7149488
aI7032972
aI7015487
aI6444300
aI5779960
aI5748114
aI5681008
aI5640673
aI5590327
aI5586816
aI5569410
aI5540569
aI5519039
aI5502402
aI5491476
aI5454571
aI5437668
aI5280214
aI5254970
aI5255294
aI5254912
aI5190277
aI4909765
aI4611851
aI4611639
aI4607739
aI4607694
aI4045009
aI3660270
aI3661604
aI3632210
aI2726740
aI2685845
aI2008871
aI1966456
aI1290323
aI1256213
aI1209156
aI195185
aI195188
aI193659
aI192993
aI171507
aI171520
aI168979
aI11223304
aI11215537
aI11215220
aI11214674
aI11212249
aI11209414
aI11203975
aI11208747
aI11191132
aI11190647
aI11157776
aI11165136
aI11159470
aI11156854
aI10899479
aI10883690
aI10882852
aI10869004
aI10649422
aI10624999
aI10627442
aI10549591
aI9968323
aI9783815
aI9769144
aI9770243
aI9769249
aI9768871
aI9761852
aI9745198
aI9525296
aI9497050
aI9452125
aI9457856
aI8952697
aI8766245
aI8764830
aI8742490
aI8583653
aI8282519
aI8269876
aI8245006
aI8248029
aI8244762
aI8240911
aI8240706
aI8233859
aI8233114
aI8228051
aI8213359
aI8219462
aI8218721
aI8210253
aI8205470
aI8205839
aI8205660
aI8198655
aI8198593
aI8198536
aI8198411
aI8198384
aI8204450
aI8203893
aI8203523
aI8203457
aI8202057
aI8201751
aI8201734
aI8201670
aI8201048
aI8198692
aI8197236
aI8198073
aI8197899
aI8197328
aI8198272
aI9846705
aI9846828
aI10593838
aI9271764
aI9012694
aI8670203
aI7164802
aI5774966
aI5692694
aI4989010
aI7362920
aI9935894
aI7452319
aI3132458
aI2689772
aI1447759
aI1447752
aI1448429
aI1448476
aI1436422
aI1420152
aI1370471
aI1360342
aI1231057
aI9158906
aI10649183
aI11642147
aI11199780
aI10986876
aI10952876
aI10742315
aI9572605
aI8793444
aI7734326
aI6770861
aI6403606
aI6297969
aI5571971
aI5453736
aI5450953
aI5406325
aI5239560
aI5173636
aI4187640
aI3780810
aI3728992
aI3711230
aI3704255
aI3376332
aI3376190
aI3374663
aI3348140
aI3348482
aI3231631
aI3113611
aI3016401
aI2866573
aI2866379
aI2868075
aI2732650
aI2684496
aI2382967
aI2368903
aI1948100
aI1883736
aI1835734
aI1719333
aI1716963
aI1711070
aI1710989
aI1681466
aI1681594
aI11600069
aI11457812
aI11181934
aI11092412
aI10809830
aI10809232
aI10788753
aI10776339
aI10724509
aI10690021
aI10646271
aI10161929
aI9547351
aI9128880
aI9070952
aI11499707
aI10891611
aI10303049
aI10185269
aI10140318
aI10100016
aI10101279
aI10105169
aI9938227
aI9866427
aI9799673
aI9715393
aI9680577
aI9679913
aI9662763
aI9645482
aI9616902
aI9513892
aI9513463
aI11211695
aI10784311
aI10383765
aI9723010
aI9541355
aI9443743
aI9268116
aI8595245
aI7645256
aI6676291
aI6613416
aI6569271
aI6536485
aI6222483
aI6179635
aI11491547
aI11492031
aI11190599
aI10535379
aI10362766
aI10335404
aI10320264
aI4032120
aI10780231
aI10170449
aI10118487
aI9688777
aI7912400
aI7846320
aI7722802
aI7598515
aI7581956
aI7567859
aI7554268
aI7514108
aI7497242
aI7483925
aI7485051
aI7482574
aI7442275
aI7444186
aI7385207
aI7385339
aI7187778
aI7156924
aI7146223
aI7146305
aI7106091
aI7103475
aI7088601
aI7092653
aI7074450
aI7074346
aI7036716
aI7024590
aI7009435
aI7012193
aI7011927
aI7010300
aI7009663
aI7009511
aI6982206
aI6955625
aI6952595
aI6940180
aI6941083
aI6941032
aI6922516
aI6927138
aI6922687
aI6914034
aI6913658
aI6912997
aI6909075
aI6907946
aI6899577
aI6874509
aI6870226
aI6855128
aI6855055
aI6854948
aI6857699
aI6856420
aI6840826
aI6843433
aI6825949
aI6607233
aI6580009
aI6571662
aI6572438
aI6548609
aI6534069
aI6531279
aI6530681
aI6517289
aI6517230
aI6516992
aI6517880
aI6522634
aI6506250
aI6505370
aI6502905
aI6494123
aI6489887
aI6464685
aI6467286
aI6464774
aI6468800
aI6452984
aI6435875
aI6439286
aI6421176
aI6422469
aI6409980
aI6409913
aI6383205
aI6382161
aI6382776
aI6383301
aI6367801
aI6368939
aI6370665
aI6372219
aI6356689
aI6354000
aI6343712
aI6343182
aI6339640
aI6327132
aI6303719
aI6303580
aI6303004
aI6302800
aI6292634
aI6289154
aI6288776
aI6288570
aI6279482
aI6278839
aI6277603
aI6276831
aI6267053
aI6266390
aI6265264
aI6264793
aI6253705
aI6253350
aI6248507
aI6227555
aI6226726
aI6215433
aI6214529
aI6214199
aI6211531
aI6187067
aI6186836
aI6186322
aI6183725
aI6176383
aI6176194
aI6173824
aI6148465
aI6139662
aI6137263
aI6136198
aI6135478
aI6126008
aI6123768
aI6109384
aI6096158
aI6073234
aI6030473
aI6027005
aI6016324
aI6015016
aI5991656
aI5990970
aI5988522
aI5973729
aI5947711
aI5933142
aI5897947
aI5894744
aI5897356
aI5885437
aI5866450
aI5854607
aI5815100
aI5814215
aI5778186
aI5779502
aI5756585
aI5754982
aI5740491
aI5726571
aI5714013
aI5712603
aI5717737
aI5713342
aI7401646
aI11358836
aI11295356
aI11285108
aI11259837
aI11223990
aI10686932
aI9955544
aI9534181
aI8918015
aI8771190
aI63269
aI2579472
aI7049401
aI6966622
aI6723568
aI11325720
aI11309235
aI10851716
aI10278418
aI10266623
aI10043563
aI9000126
aI7740268
aI7726493
aI7696197
aI7595477
aI7190863
aI6651414
aI6569091
aI6565740
aI5880432
aI5404500
aI5195198
aI2333938
aI2290073
aI2191186
aI2191411
aI2116815
aI2116583
aI2055548
aI2006060
aI2006005
aI8051185
aI3645908
aI11726737
aI11583172
aI11566719
aI11549732
aI11530741
aI11458773
aI11284189
aI10505696
aI10301795
aI9021136
aI7656738
aI7657164
aI7579807
aI7485834
aI7433517
aI7433105
aI7406848
aI7403225
aI7368124
aI7343082
aI7265695
aI7265715
aI7265844
aI7262497
aI7233997
aI7214610
aI7214566
aI7210023
aI7192525
aI7166907
aI6987889
aI6905940
aI6916938
aI6912256
aI6912097
aI5044617
aI4732476
aI4740300
aI2442784
aI2277052
aI2241183
aI2148038
aI2148814
aI2148899
aI2134445
aI2136237
aI2018535
aI2015215
aI1930467
aI1929156
aI1894541
aI1853880
aI1851118
aI1844101
aI1842198
aI1842236
aI1843164
aI1841516
aI1841301
aI1841893
aI1836993
aI1830094
aI1830813
aI1830749
aI1830265
aI1830112
aI1830234
aI1830159
aI1829900
aI1823802
aI1823730
aI1829718
aI1823712
aI1823652
aI1823665
aI1823606
aI1821908
aI1817779
aI1817661
aI1818130
aI1823179
aI1822059
aI1817963
aI1818056
aI1818145
aI1820544
aI1817830
aI1814655
aI1809523
aI1805371
aI1801904
aI1801835
aI1804516
aI9105817
aI7884626
aI7884398
aI7884496
aI7884206
aI7884322
aI7884362
aI6883719
aI6875235
aI6864843
aI6863301
aI6854043
aI6853369
aI6852831
aI6852625
aI6852208
aI6851978
aI6849412
aI6838763
aI6838247
aI6838100
aI6838011
aI6835462
aI6834038
aI6804617
aI6804631
aI6792369
aI6792742
aI6796779
aI6796801
aI6796948
aI5427850
aI5187673
aI4709951
aI4709856
aI4709818
aI3974562
aI3944044
aI3939292
aI3930234
aI3933658
aI3930389
aI3929413
aI3927962
aI3926956
aI3926274
aI3926182
aI3925382
aI3921349
aI3921296
aI1168588
aI8172214
aI7680646
aI9410292
aI6026251
aI5172770
aI5112763
aI5033418
aI5023235
aI10623965
aI10521717
aI11228403
aI10296866
aI10175181
aI9699690
aI9462972
aI9412291
aI9329735
aI9265003
aI9198919
aI9493914
aI9246838
aI9246725
aI9237930
aI8485117
aI8409138
aI8409910
aI8411400
aI8411984
aI8396671
aI8380748
aI8380542
aI8290936
aI8291187
aI8282944
aI8265074
aI8238493
aI5162090
aI4739227
aI4348162
aI3747482
aI3680761
aI2457305
aI2371928
aI2281065
aI2272747
aI2272542
aI2267140
aI11736154
aI10009699
aI8819743
aI8825533
aI8807375
aI8517877
aI7609405
aI7024330
aI5963381
aI5936834
aI5896397
aI5883422
aI5881845
aI5299267
aI11658783
aI11659221
aI11552179
aI11495771
aI11354962
aI11350933
aI11353172
aI11287158
aI11229698
aI11197675
aI11182176
aI11128048
aI11010106
aI10906050
aI10842726
aI10707758
aI10376091
aI10310284
aI10310190
aI10269779
aI10250887
aI10197584
aI10195728
aI9967332
aI9814271
aI9796532
aI9796428
aI9652676
aI9652711
aI9652871
aI9652632
aI9652662
aI9388865
aI9290489
aI9290336
aI9290418
aI9270761
aI9285109
aI9270783
aI9270707
aI9269987
aI9236886
aI9234881
aI9203519
aI9202156
aI9202109
aI9105653
aI9105578
aI9105703
aI9059068
aI9059215
aI9059121
aI9059243
aI8996659
aI8996563
aI8949955
aI8919758
aI8919629
aI8919692
aI8886782
aI8886660
aI8722186
aI8640984
aI8319566
aI7936211
aI6590489
aI6587413
aI5269506
aI5082943
aI5026635
aI4880670
aI4824028
aI4824144
aI4731015
aI4731277
aI4719819
aI4508577
aI3807212
aI10832132
aI10720582
aI10411163
aI10348314
aI9064150
aI8520163
aI4939408
aI4925918
aI11725682
aI3146571
aI3096938
aI3052245
aI2906790
aI2894914
aI2809269
aI2756236
aI9732178
aI1936035
aI11110956
aI10425712
aI9472660
aI9455009
aI9365760
aI9186436
aI8903904
aI3450304
aI3450410
aI3450902
aI8928666
aI10156520
aI10571035
aI7084208
aI6006843
aI6006873
aI6006973
aI11062307
aI11059575
aI11039890
aI10432344
aI9631085
aI9261918
aI9086139
aI8463997
aI8165021
aI8423896
aI7693511
aI2367870
aI10227853
aI4476696
aI8450276
aI8423243
aI10774722
aI10403542
aI8917227
aI3764407
aI7129380
aI9601876
aI8416037
aI8423981
aI8423723
aI8390846
aI8371708
aI8363349
aI8334319
aI8243813
aI8233807
aI7989506
aI11433918
aI11433371
aI11431354
aI10493312
aI9715172
aI9703103
aI9681028
aI9664850
aI9563092
aI9517666
aI9498967
aI9494413
aI9482142
aI4773176
aI2100078
aI11671833
aI8280858
aI7839468
aI7540064
aI7434612
aI7031517
aI7013487
aI6848279
aI6833854
aI6830495
aI6762472
aI6523738
aI6521600
aI6506919
aI6496582
aI6473613
aI6459986
aI6415708
aI6317197
aI6317102
aI6309474
aI6307497
aI6309827
aI5663573
aI5450421
aI5450379
aI4582376
aI4551138
aI4528258
aI4415673
aI4405502
aI4330524
aI4092914
aI4038605
aI4019849
aI4006516
aI3956058
aI3963595
aI3827393
aI3817596
aI3775253
aI3731070
aI3720331
aI3664251
aI3640126
aI3595941
aI3552751
aI3526643
aI3507468
aI3460022
aI3443886
aI3396845
aI3372583
aI3372294
aI3336136
aI3338672
aI3331636
aI3330616
aI3319112
aI3311807
aI3313133
aI3310222
aI3295779
aI3280749
aI3285438
aI3280845
aI3275837
aI3233900
aI3242175
aI3237562
aI3205651
aI3189995
aI3144548
aI3141184
aI3133327
aI3133868
aI3133461
aI3127818
aI3121466
aI3111179
aI3105567
aI3103615
aI3102820
aI3093565
aI3089629
aI3081649
aI3081614
aI3085234
aI3085937
aI3084756
aI3050456
aI3023352
aI3011005
aI3002073
aI2992564
aI2975554
aI2962736
aI2966150
aI2954645
aI2960803
aI2921845
aI2917298
aI2906214
aI2906282
aI2908057
aI2827963
aI2813328
aI2726146
aI2705751
aI2688117
aI2665112
aI2655132
aI2650675
aI2640317
aI2535640
aI2459034
aI2382834
aI2366882
aI2219243
aI2184609
aI2119708
aI2083777
aI2025476
aI2013848
aI1995854
aI1926078
aI1925806
aI1885882
aI1886037
aI1875609
aI1823964
aI1799997
aI1789604
aI1784845
aI1768030
aI1768665
aI1735582
aI1702467
aI1695675
aI1695389
aI1695769
aI1697401
aI1692184
aI1690675
aI1675508
aI1578190
aI1570289
aI1550817
aI1550847
aI1523393
aI1484950
aI1484991
aI1485239
aI1407197
aI1394912
aI1331971
aI1325954
aI1313992
aI1305354
aI1282352
aI1277577
aI1145000
aI1137794
aI1121359
aI1116821
aI1090247
aI1070704
aI1060137
aI1058192
aI1058314
aI1059862
aI1060055
aI11731250
aI5063899
aI9346863
aI10386973
aI5762966
aI10961941
aI10963288
aI10961999
aI10761969
aI10762390
aI10711645
aI10675535
aI10633664
aI10470145
aI7676370
aI8253819
aI5447588
aI4912413
aI3809366
aI3787067
aI10338671
aI10098104
aI8017370
aI7908717
aI6837398
aI6752488
aI5560626
aI5320182
aI2181715
aI744674
aI707823
aI707531
aI10882416
aI8601087
aI8542927
aI5114589
aI11156698
aI10443207
aI8894223
aI11298149
aI10757451
aI10388402
aI10212247
aI9949202
aI9740247
aI9738619
aI9635542
aI7412230
aI7412532
aI7412576
aI6636358
aI5370485
aI5370672
aI10133162
aI11161845
aI15195
aI15273
aI13858
aI11477264
aI10092995
aI9788145
aI9620593
aI9022981
aI8417712
aI8392277
aI8328404
aI9951338
aI11115682
aI4054145
aI3056483
aI7257189
aI7219309
aI7220717
aI7686699
aI4969548
aI4923261
aI4914548
aI4890037
aI4885759
aI4856101
aI4820002
aI4817817
aI2656431
aI3457117
aI3457143
aI3457597
aI11487793
aI10256653
aI9650296
aI9010608
aI8996053
aI7937307
aI7853469
aI7853456
aI7853432
aI7853419
aI7853412
aI7588354
aI7507987
aI7507901
aI7180273
aI6603856
aI6592087
aI6091786
aI6079106
aI6079126
aI6079130
aI5721585
aI5364729
aI5306382
aI5279542
aI2277824
aI2182280
aI2182257
aI2091571
aI6063776
aI7150788
aI4075988
aI8642076
aI8490503
aI8383615
aI8383153
aI8376730
aI8267077
aI8185755
aI8119605
aI7723163
aI7713012
aI7675533
aI7565926
aI7487945
aI7383474
aI7383494
aI7309318
aI7309505
aI7302069
aI7291692
aI7254260
aI7226817
aI7172824
aI7158450
aI7143397
aI7088169
aI7089745
aI6787903
aI6771661
aI6749749
aI6741897
aI6749758
aI6703033
aI6676228
aI6675763
aI6660674
aI6647870
aI6607814
aI6493948
aI6493970
aI6492967
aI6449827
aI6450948
aI6450682
aI6425393
aI6367288
aI6327460
aI6289598
aI6289615
aI6293786
aI6256098
aI6199413
aI6186124
aI6137295
aI6097418
aI6016346
aI5937234
aI5907123
aI5867778
aI5839241
aI5839252
aI5839269
aI5828947
aI5775854
aI5776816
aI5776796
aI5775752
aI5741734
aI5731301
aI5729407
aI5658719
aI5645013
aI5645429
aI5631057
aI5583623
aI5548312
aI5536388
aI5483579
aI5483609
aI5484240
aI5457212
aI5457120
aI5457271
aI5428806
aI5429496
aI5430213
aI5430465
aI5350252
aI5323762
aI5255435
aI4447450
aI4312797
aI4283861
aI4283488
aI4283847
aI4278490
aI4264029
aI4270579
aI4243661
aI4238614
aI4173433
aI4173425
aI4161682
aI4168339
aI4161698
aI4142075
aI4043071
aI4033972
aI4025957
aI4026078
aI3976503
aI3975257
aI3978119
aI3976526
aI3883692
aI3870889
aI3837049
aI3833018
aI3820072
aI3819459
aI3785070
aI3785116
aI3784986
aI3777028
aI3778020
aI3779447
aI3781551
aI3767764
aI3769803
aI3768460
aI3749131
aI3749074
aI3749090
aI3737247
aI3725832
aI3726055
aI3707266
aI3706145
aI3695087
aI3674419
aI3637994
aI3624806
aI3625502
aI3615571
aI3608877
aI3563475
aI3537935
aI3520238
aI3519196
aI3437301
aI3306462
aI3297007
aI3297073
aI3272816
aI3265986
aI3165838
aI3027887
aI3027788
aI2825917
aI2771615
aI2743146
aI2737249
aI2705493
aI2698089
aI2698826
aI2680894
aI2662989
aI2658859
aI2630109
aI2618043
aI2605850
aI2606881
aI2577509
aI2570556
aI2536044
aI2529602
aI2521660
aI2514904
aI2500711
aI2492553
aI2494256
aI2493148
aI2493124
aI2488163
aI2445809
aI2445796
aI2416359
aI2417035
aI2407091
aI2399862
aI2399652
aI2391962
aI2385456
aI2378678
aI2377622
aI2377961
aI2378475
aI2370828
aI2370982
aI2354306
aI2354319
aI2336573
aI2305359
aI2303209
aI2268409
aI2260867
aI2256874
aI2254918
aI2198122
aI2197957
aI2197858
aI2198262
aI2197668
aI2198175
aI2186106
aI2186063
aI2186133
aI2176483
aI2175517
aI2178496
aI2172158
aI2160868
aI2164153
aI2156017
aI2152581
aI2144706
aI2140185
aI2130309
aI2127830
aI2127844
aI2123654
aI2121929
aI2121865
aI2117040
aI2115661
aI2115652
aI2115673
aI2072123
aI2072161
aI2072263
aI2072333
aI2072375
aI2071437
aI1871904
aI1871893
aI1763856
aI1714593
aI1697643
aI1696234
aI1689966
aI1660364
aI1660947
aI1660307
aI1641341
aI1641659
aI1641336
aI1641324
aI1636003
aI1623880
aI1617526
aI1604995
aI1559201
aI1524730
aI1486002
aI1485967
aI1458354
aI1459257
aI1454387
aI1452550
aI1436718
aI1436628
aI1431839
aI1431943
aI1431929
aI1425759
aI1419682
aI1419660
aI1416871
aI1416859
aI1414307
aI1409634
aI1409241
aI1397633
aI1397651
aI1398461
aI1366505
aI1366401
aI1366761
aI1362100
aI1345745
aI1333176
aI1326226
aI1326189
aI1326288
aI1320592
aI1320552
aI1318175
aI1293422
aI1286411
aI1276733
aI1276967
aI1277121
aI1264887
aI1258776
aI1262831
aI1258852
aI1257290
aI1243355
aI1243376
aI1243504
aI1237571
aI1229515
aI1226503
aI1226478
aI1226879
aI1221489
aI1220819
aI1210703
aI1210673
aI1213089
aI1205365
aI1198316
aI1198257
aI1198228
aI1186408
aI1189027
aI1186690
aI1186871
aI1181691
aI1175646
aI1175693
aI1175739
aI1175949
aI1172900
aI1169502
aI1169471
aI1169407
aI1169386
aI1163325
aI1163318
aI1163236
aI1163639
aI1165499
aI1164651
aI1164671
aI1166801
aI1163329
aI1152076
aI1151955
aI1151849
aI1151673
aI1151690
aI1150277
aI1150394
aI1150246
aI1150255
aI1149312
aI1137641
aI1137729
aI1137758
aI1137768
aI1122936
aI1118190
aI1118091
aI1118008
aI1117847
aI1118494
aI1096819
aI1077690
aI1080679
aI1075534
aI1075521
aI1067603
aI1067535
aI1047346
aI1047200
aI1042015
aI3286723
aI8941248
aI7767892
aI7723506
aI7723733
aI7429076
aI5993437
aI5513385
aI5513851
aI5244795
aI4930979
aI9543284
aI9477457
aI9459556
aI9460441
aI9389699
aI9222825
aI8982182
aI8695494
aI8686042
aI10205916
aI4740340
aI4726556
aI1103058
aI10242779
aI9413007
aI7672470
aI3599383
aI6591080
aI6531674
aI6167586
aI6166386
aI6162006
aI6105348
aI6078189
aI6051263
aI6038345
aI6025116
aI6013671
aI6012377
aI6007960
aI6008100
aI5999662
aI5985019
aI5976361
aI5971309
aI5962062
aI5961993
aI5934977
aI5899227
aI5527541
aI5532887
aI5505612
aI5489756
aI5467151
aI9494810
aI9323739
aI7021922
aI7007324
aI6925644
aI9896067
aI1713650
aI1102721
aI1090967
aI9666777
aI8938140
aI3580612
aI3501097
aI3421360
aI2911353
aI2911483
aI3967744
aI3960701
aI10825490
aI9778116
aI7357480
aI7197444
aI7151987
aI3860240
aI3567957
aI3197722
aI2878442
aI2671141
aI2390240
aI2208822
aI2147892
aI2126085
aI1555080
aI1547459
aI1449033
aI1055034
aI872915
aI858687
aI5740040
aI4140155
aI11446494
aI10732404
aI10721563
aI10721449
aI11566990
aI11510682
aI11476790
aI11419056
aI11351538
aI10851897
aI10777435
aI10762186
aI10745002
aI10700185
aI10642165
aI10580904
aI10580575
aI10544973
aI10545257
aI10547755
aI10476273
aI10475915
aI10476051
aI10221838
aI10220454
aI10034948
aI10018610
aI10003732
aI10002394
aI9914982
aI9849786
aI9845683
aI9763318
aI9763397
aI9763262
aI9733261
aI9679579
aI9679834
aI9662750
aI9324128
aI9324190
aI9303804
aI9305900
aI9318823
aI9204264
aI9205416
aI9192489
aI9185662
aI9185502
aI8191567
aI8110763
aI8090479
aI8100395
aI8091967
aI8090159
aI7414039
aI7199701
aI7172100
aI7156914
aI7157178
aI7155899
aI7129599
aI7129670
aI7129929
aI7129807
aI7129887
aI6447994
aI6460220
aI6422262
aI6431477
aI6431665
aI6423554
aI6409620
aI6409105
aI6404263
aI6404239
aI6400178
aI3012101
aI2039189
aI1598293
aI1355427
aI653022
aI552414
aI468292
aI448998
aI438122
aI426781
aI7030868
aI11698391
aI11685871
aI11684184
aI11684081
aI11643893
aI11624117
aI11621042
aI11619888
aI11617682
aI11590060
aI11565306
aI11565749
aI11434755
aI11436825
aI11435721
aI11415288
aI11420594
aI11419721
aI11402371
aI11401559
aI11401158
aI11400509
aI11246539
aI9966145
aI9306715
aI10169847
aI10679396
aI9492676
aI9441486
aI10069117
aI3019967
aI2996601
aI1438691
aI1427886
aI1378344
aI1378477
aI1378544
aI1378654
aI10818565
aI9912517
aI9688227
aI8894864
aI8894341
aI8894462
aI8887818
aI8851040
aI8850871
aI8658871
aI8645798
aI8601966
aI8241009
aI8243420
aI8225917
aI8235554
aI8211739
aI8185479
aI8165673
aI8165612
aI8164830
aI8165009
aI8165484
aI8176095
aI8134375
aI8131138
aI8134253
aI8134518
aI8134568
aI8139116
aI8129130
aI8106642
aI6579782
aI6057265
aI6057149
aI5458154
aI5458189
aI5458318
aI5459672
aI4640122
aI3145526
aI9124545
aI5601325
aI4523254
aI11646056
aI11648385
aI11544822
aI11104909
aI10632978
aI9175059
aI6873487
aI6579380
aI6424103
aI6263813
aI6186663
aI5193388
aI5152788
aI3921555
aI3892194
aI3736195
a.